Archive member included to satisfy reference by file (symbol)

C:\Users\kirti\PK_S5D9\verify\synergy\ssp\src\framework\el\tx\cm4_gcc\libtx.a(txe_queue_create.o)
                              ./src/synergy_gen/thread0.o (_txe_queue_create)
C:\Users\kirti\PK_S5D9\verify\synergy\ssp\src\framework\el\tx\cm4_gcc\libtx.a(txe_semaphore_create.o)
                              ./src/synergy_gen/main.o (_txe_semaphore_create)
C:\Users\kirti\PK_S5D9\verify\synergy\ssp\src\framework\el\tx\cm4_gcc\libtx.a(txe_semaphore_get.o)
                              ./src/synergy_gen/main.o (_txe_semaphore_get)
C:\Users\kirti\PK_S5D9\verify\synergy\ssp\src\framework\el\tx\cm4_gcc\libtx.a(txe_semaphore_put.o)
                              ./src/synergy_gen/main.o (_txe_semaphore_put)
C:\Users\kirti\PK_S5D9\verify\synergy\ssp\src\framework\el\tx\cm4_gcc\libtx.a(txe_thread_create.o)
                              ./src/synergy_gen/thread0.o (_txe_thread_create)
C:\Users\kirti\PK_S5D9\verify\synergy\ssp\src\framework\el\tx\cm4_gcc\libtx.a(tx_initialize_high_level.o)
                              C:\Users\kirti\PK_S5D9\verify\synergy\ssp\src\framework\el\tx\cm4_gcc\libtx.a(txe_queue_create.o) (_tx_queue_created_ptr)
C:\Users\kirti\PK_S5D9\verify\synergy\ssp\src\framework\el\tx\cm4_gcc\libtx.a(tx_initialize_kernel_enter.o)
                              ./src/synergy_gen/main.o (_tx_initialize_kernel_enter)
C:\Users\kirti\PK_S5D9\verify\synergy\ssp\src\framework\el\tx\cm4_gcc\libtx.a(tx_isr_end.o)
                              ./synergy/ssp/src/driver/r_sci_uart/r_sci_uart.o (tx_isr_end)
C:\Users\kirti\PK_S5D9\verify\synergy\ssp\src\framework\el\tx\cm4_gcc\libtx.a(tx_isr_start.o)
                              ./synergy/ssp/src/driver/r_sci_uart/r_sci_uart.o (tx_isr_start)
C:\Users\kirti\PK_S5D9\verify\synergy\ssp\src\framework\el\tx\cm4_gcc\libtx.a(tx_queue_create.o)
                              C:\Users\kirti\PK_S5D9\verify\synergy\ssp\src\framework\el\tx\cm4_gcc\libtx.a(txe_queue_create.o) (_tx_queue_create)
C:\Users\kirti\PK_S5D9\verify\synergy\ssp\src\framework\el\tx\cm4_gcc\libtx.a(tx_semaphore_create.o)
                              C:\Users\kirti\PK_S5D9\verify\synergy\ssp\src\framework\el\tx\cm4_gcc\libtx.a(txe_semaphore_create.o) (_tx_semaphore_create)
C:\Users\kirti\PK_S5D9\verify\synergy\ssp\src\framework\el\tx\cm4_gcc\libtx.a(tx_semaphore_get.o)
                              C:\Users\kirti\PK_S5D9\verify\synergy\ssp\src\framework\el\tx\cm4_gcc\libtx.a(txe_semaphore_get.o) (_tx_semaphore_get)
C:\Users\kirti\PK_S5D9\verify\synergy\ssp\src\framework\el\tx\cm4_gcc\libtx.a(tx_semaphore_put.o)
                              C:\Users\kirti\PK_S5D9\verify\synergy\ssp\src\framework\el\tx\cm4_gcc\libtx.a(txe_semaphore_put.o) (_tx_semaphore_put)
C:\Users\kirti\PK_S5D9\verify\synergy\ssp\src\framework\el\tx\cm4_gcc\libtx.a(tx_thread_create.o)
                              C:\Users\kirti\PK_S5D9\verify\synergy\ssp\src\framework\el\tx\cm4_gcc\libtx.a(txe_thread_create.o) (_tx_thread_create)
C:\Users\kirti\PK_S5D9\verify\synergy\ssp\src\framework\el\tx\cm4_gcc\libtx.a(tx_thread_initialize.o)
                              C:\Users\kirti\PK_S5D9\verify\synergy\ssp\src\framework\el\tx\cm4_gcc\libtx.a(tx_initialize_high_level.o) (_tx_thread_initialize)
C:\Users\kirti\PK_S5D9\verify\synergy\ssp\src\framework\el\tx\cm4_gcc\libtx.a(tx_thread_shell_entry.o)
                              C:\Users\kirti\PK_S5D9\verify\synergy\ssp\src\framework\el\tx\cm4_gcc\libtx.a(tx_thread_create.o) (_tx_thread_shell_entry)
C:\Users\kirti\PK_S5D9\verify\synergy\ssp\src\framework\el\tx\cm4_gcc\libtx.a(tx_thread_sleep.o)
                              ./src/thread0_entry.o (_tx_thread_sleep)
C:\Users\kirti\PK_S5D9\verify\synergy\ssp\src\framework\el\tx\cm4_gcc\libtx.a(tx_thread_system_preempt_check.o)
                              C:\Users\kirti\PK_S5D9\verify\synergy\ssp\src\framework\el\tx\cm4_gcc\libtx.a(txe_queue_create.o) (_tx_thread_system_preempt_check)
C:\Users\kirti\PK_S5D9\verify\synergy\ssp\src\framework\el\tx\cm4_gcc\libtx.a(tx_thread_system_resume.o)
                              C:\Users\kirti\PK_S5D9\verify\synergy\ssp\src\framework\el\tx\cm4_gcc\libtx.a(tx_semaphore_put.o) (_tx_thread_system_resume)
C:\Users\kirti\PK_S5D9\verify\synergy\ssp\src\framework\el\tx\cm4_gcc\libtx.a(tx_thread_system_suspend.o)
                              C:\Users\kirti\PK_S5D9\verify\synergy\ssp\src\framework\el\tx\cm4_gcc\libtx.a(tx_semaphore_get.o) (_tx_thread_system_suspend)
C:\Users\kirti\PK_S5D9\verify\synergy\ssp\src\framework\el\tx\cm4_gcc\libtx.a(tx_thread_timeout.o)
                              C:\Users\kirti\PK_S5D9\verify\synergy\ssp\src\framework\el\tx\cm4_gcc\libtx.a(tx_thread_create.o) (_tx_thread_timeout)
C:\Users\kirti\PK_S5D9\verify\synergy\ssp\src\framework\el\tx\cm4_gcc\libtx.a(tx_timer_initialize.o)
                              C:\Users\kirti\PK_S5D9\verify\synergy\ssp\src\framework\el\tx\cm4_gcc\libtx.a(tx_initialize_high_level.o) (_tx_timer_initialize)
C:\Users\kirti\PK_S5D9\verify\synergy\ssp\src\framework\el\tx\cm4_gcc\libtx.a(tx_timer_system_activate.o)
                              C:\Users\kirti\PK_S5D9\verify\synergy\ssp\src\framework\el\tx\cm4_gcc\libtx.a(tx_thread_system_suspend.o) (_tx_timer_system_activate)
C:\Users\kirti\PK_S5D9\verify\synergy\ssp\src\framework\el\tx\cm4_gcc\libtx.a(tx_timer_system_deactivate.o)
                              C:\Users\kirti\PK_S5D9\verify\synergy\ssp\src\framework\el\tx\cm4_gcc\libtx.a(tx_thread_system_resume.o) (_tx_timer_system_deactivate)
C:\Users\kirti\PK_S5D9\verify\synergy\ssp\src\framework\el\tx\cm4_gcc\libtx.a(tx_initialize_low_level.o)
                              C:\Users\kirti\PK_S5D9\verify\synergy\ssp\src\framework\el\tx\cm4_gcc\libtx.a(tx_initialize_kernel_enter.o) (_tx_initialize_low_level)
C:\Users\kirti\PK_S5D9\verify\synergy\ssp\src\framework\el\tx\cm4_gcc\libtx.a(tx_thread_schedule.o)
                              C:\Users\kirti\PK_S5D9\verify\synergy\ssp\src\framework\el\tx\cm4_gcc\libtx.a(tx_initialize_kernel_enter.o) (_tx_thread_schedule)
C:\Users\kirti\PK_S5D9\verify\synergy\ssp\src\framework\el\tx\cm4_gcc\libtx.a(tx_thread_stack_build.o)
                              C:\Users\kirti\PK_S5D9\verify\synergy\ssp\src\framework\el\tx\cm4_gcc\libtx.a(tx_thread_create.o) (_tx_thread_stack_build)
C:\Users\kirti\PK_S5D9\verify\synergy\ssp\src\framework\el\tx\cm4_gcc\libtx.a(tx_timer_interrupt.o)
                              C:\Users\kirti\PK_S5D9\verify\synergy\ssp\src\framework\el\tx\cm4_gcc\libtx.a(tx_thread_schedule.o) (_tx_timer_interrupt)
C:\Users\kirti\PK_S5D9\verify\synergy\ssp\src\framework\el\tx\cm4_gcc\libtx.a(tx_semaphore_cleanup.o)
                              C:\Users\kirti\PK_S5D9\verify\synergy\ssp\src\framework\el\tx\cm4_gcc\libtx.a(tx_semaphore_get.o) (_tx_semaphore_cleanup)
C:\Users\kirti\PK_S5D9\verify\synergy\ssp\src\framework\el\tx\cm4_gcc\libtx.a(tx_thread_time_slice.o)
                              C:\Users\kirti\PK_S5D9\verify\synergy\ssp\src\framework\el\tx\cm4_gcc\libtx.a(tx_timer_interrupt.o) (_tx_thread_time_slice)
C:\Users\kirti\PK_S5D9\verify\synergy\ssp\src\framework\el\tx\cm4_gcc\libtx.a(tx_timer_expiration_process.o)
                              C:\Users\kirti\PK_S5D9\verify\synergy\ssp\src\framework\el\tx\cm4_gcc\libtx.a(tx_timer_interrupt.o) (_tx_timer_expiration_process)
c:/renesas/synergy/e2studio_v7.5.1_ssp_v1.7.5/toolchains/gcc_arm/7.2.1_2017q4/bin/../lib/gcc/arm-none-eabi/7.2.1/thumb/v7e-m/fpv4-sp/hard\libgcc.a(_aeabi_ldivmod.o)
                              ./synergy/ssp/src/driver/r_sci_uart/r_sci_uart.o (__aeabi_ldivmod)
c:/renesas/synergy/e2studio_v7.5.1_ssp_v1.7.5/toolchains/gcc_arm/7.2.1_2017q4/bin/../lib/gcc/arm-none-eabi/7.2.1/thumb/v7e-m/fpv4-sp/hard\libgcc.a(_aeabi_uldivmod.o)
                              ./synergy/ssp/src/driver/r_gpt/r_gpt.o (__aeabi_uldivmod)
c:/renesas/synergy/e2studio_v7.5.1_ssp_v1.7.5/toolchains/gcc_arm/7.2.1_2017q4/bin/../lib/gcc/arm-none-eabi/7.2.1/thumb/v7e-m/fpv4-sp/hard\libgcc.a(_udivmoddi4.o)
                              c:/renesas/synergy/e2studio_v7.5.1_ssp_v1.7.5/toolchains/gcc_arm/7.2.1_2017q4/bin/../lib/gcc/arm-none-eabi/7.2.1/thumb/v7e-m/fpv4-sp/hard\libgcc.a(_aeabi_ldivmod.o) (__udivmoddi4)
c:/renesas/synergy/e2studio_v7.5.1_ssp_v1.7.5/toolchains/gcc_arm/7.2.1_2017q4/bin/../lib/gcc/arm-none-eabi/7.2.1/thumb/v7e-m/fpv4-sp/hard\libgcc.a(_dvmd_tls.o)
                              c:/renesas/synergy/e2studio_v7.5.1_ssp_v1.7.5/toolchains/gcc_arm/7.2.1_2017q4/bin/../lib/gcc/arm-none-eabi/7.2.1/thumb/v7e-m/fpv4-sp/hard\libgcc.a(_aeabi_ldivmod.o) (__aeabi_ldiv0)
c:/renesas/synergy/e2studio_v7.5.1_ssp_v1.7.5/toolchains/gcc_arm/7.2.1_2017q4/bin/../lib/gcc/arm-none-eabi/7.2.1/../../../../arm-none-eabi/lib/thumb/v7e-m/fpv4-sp/hard\libg_nano.a(lib_a-errno.o)
                              ./synergy/ssp/src/bsp/mcu/all/bsp_sbrk.o (__errno)
c:/renesas/synergy/e2studio_v7.5.1_ssp_v1.7.5/toolchains/gcc_arm/7.2.1_2017q4/bin/../lib/gcc/arm-none-eabi/7.2.1/../../../../arm-none-eabi/lib/thumb/v7e-m/fpv4-sp/hard\libg_nano.a(lib_a-exit.o)
                              c:/renesas/synergy/e2studio_v7.5.1_ssp_v1.7.5/toolchains/gcc_arm/7.2.1_2017q4/bin/../lib/gcc/arm-none-eabi/7.2.1/../../../../arm-none-eabi/lib/thumb/v7e-m/fpv4-sp/hard/rdimon-crt0.o (exit)
c:/renesas/synergy/e2studio_v7.5.1_ssp_v1.7.5/toolchains/gcc_arm/7.2.1_2017q4/bin/../lib/gcc/arm-none-eabi/7.2.1/../../../../arm-none-eabi/lib/thumb/v7e-m/fpv4-sp/hard\libg_nano.a(lib_a-impure.o)
                              c:/renesas/synergy/e2studio_v7.5.1_ssp_v1.7.5/toolchains/gcc_arm/7.2.1_2017q4/bin/../lib/gcc/arm-none-eabi/7.2.1/../../../../arm-none-eabi/lib/thumb/v7e-m/fpv4-sp/hard\libg_nano.a(lib_a-exit.o) (_global_impure_ptr)
c:/renesas/synergy/e2studio_v7.5.1_ssp_v1.7.5/toolchains/gcc_arm/7.2.1_2017q4/bin/../lib/gcc/arm-none-eabi/7.2.1/../../../../arm-none-eabi/lib/thumb/v7e-m/fpv4-sp/hard\libg_nano.a(lib_a-init.o)
                              c:/renesas/synergy/e2studio_v7.5.1_ssp_v1.7.5/toolchains/gcc_arm/7.2.1_2017q4/bin/../lib/gcc/arm-none-eabi/7.2.1/../../../../arm-none-eabi/lib/thumb/v7e-m/fpv4-sp/hard/rdimon-crt0.o (__libc_init_array)
c:/renesas/synergy/e2studio_v7.5.1_ssp_v1.7.5/toolchains/gcc_arm/7.2.1_2017q4/bin/../lib/gcc/arm-none-eabi/7.2.1/../../../../arm-none-eabi/lib/thumb/v7e-m/fpv4-sp/hard\libg_nano.a(lib_a-memcmp.o)
                              ./synergy/ssp/src/driver/r_fmi/r_fmi.o (memcmp)
c:/renesas/synergy/e2studio_v7.5.1_ssp_v1.7.5/toolchains/gcc_arm/7.2.1_2017q4/bin/../lib/gcc/arm-none-eabi/7.2.1/../../../../arm-none-eabi/lib/thumb/v7e-m/fpv4-sp/hard\libg_nano.a(lib_a-memset.o)
                              c:/renesas/synergy/e2studio_v7.5.1_ssp_v1.7.5/toolchains/gcc_arm/7.2.1_2017q4/bin/../lib/gcc/arm-none-eabi/7.2.1/../../../../arm-none-eabi/lib/thumb/v7e-m/fpv4-sp/hard/rdimon-crt0.o (memset)
c:/renesas/synergy/e2studio_v7.5.1_ssp_v1.7.5/toolchains/gcc_arm/7.2.1_2017q4/bin/../lib/gcc/arm-none-eabi/7.2.1/../../../../arm-none-eabi/lib/thumb/v7e-m/fpv4-sp/hard\libg_nano.a(lib_a-printf.o)
                              ./src/thread0_entry.o (printf)
c:/renesas/synergy/e2studio_v7.5.1_ssp_v1.7.5/toolchains/gcc_arm/7.2.1_2017q4/bin/../lib/gcc/arm-none-eabi/7.2.1/../../../../arm-none-eabi/lib/thumb/v7e-m/fpv4-sp/hard\libg_nano.a(lib_a-rand.o)
                              ./synergy/ssp/src/bsp/cmsis/Device/RENESAS/S5D9/Source/system_S5D9.o (srand)
c:/renesas/synergy/e2studio_v7.5.1_ssp_v1.7.5/toolchains/gcc_arm/7.2.1_2017q4/bin/../lib/gcc/arm-none-eabi/7.2.1/../../../../arm-none-eabi/lib/thumb/v7e-m/fpv4-sp/hard\libg_nano.a(lib_a-findfp.o)
                              c:/renesas/synergy/e2studio_v7.5.1_ssp_v1.7.5/toolchains/gcc_arm/7.2.1_2017q4/bin/../lib/gcc/arm-none-eabi/7.2.1/../../../../arm-none-eabi/lib/thumb/v7e-m/fpv4-sp/hard\libg_nano.a(lib_a-printf.o) (__sinit)
c:/renesas/synergy/e2studio_v7.5.1_ssp_v1.7.5/toolchains/gcc_arm/7.2.1_2017q4/bin/../lib/gcc/arm-none-eabi/7.2.1/../../../../arm-none-eabi/lib/thumb/v7e-m/fpv4-sp/hard\libg_nano.a(lib_a-fwalk.o)
                              c:/renesas/synergy/e2studio_v7.5.1_ssp_v1.7.5/toolchains/gcc_arm/7.2.1_2017q4/bin/../lib/gcc/arm-none-eabi/7.2.1/../../../../arm-none-eabi/lib/thumb/v7e-m/fpv4-sp/hard\libg_nano.a(lib_a-findfp.o) (_fwalk)
c:/renesas/synergy/e2studio_v7.5.1_ssp_v1.7.5/toolchains/gcc_arm/7.2.1_2017q4/bin/../lib/gcc/arm-none-eabi/7.2.1/../../../../arm-none-eabi/lib/thumb/v7e-m/fpv4-sp/hard\libg_nano.a(lib_a-malloc.o)
                              c:/renesas/synergy/e2studio_v7.5.1_ssp_v1.7.5/toolchains/gcc_arm/7.2.1_2017q4/bin/../lib/gcc/arm-none-eabi/7.2.1/../../../../arm-none-eabi/lib/thumb/v7e-m/fpv4-sp/hard\libg_nano.a(lib_a-rand.o) (malloc)
c:/renesas/synergy/e2studio_v7.5.1_ssp_v1.7.5/toolchains/gcc_arm/7.2.1_2017q4/bin/../lib/gcc/arm-none-eabi/7.2.1/../../../../arm-none-eabi/lib/thumb/v7e-m/fpv4-sp/hard\libg_nano.a(lib_a-nano-freer.o)
                              c:/renesas/synergy/e2studio_v7.5.1_ssp_v1.7.5/toolchains/gcc_arm/7.2.1_2017q4/bin/../lib/gcc/arm-none-eabi/7.2.1/../../../../arm-none-eabi/lib/thumb/v7e-m/fpv4-sp/hard\libg_nano.a(lib_a-malloc.o) (_free_r)
c:/renesas/synergy/e2studio_v7.5.1_ssp_v1.7.5/toolchains/gcc_arm/7.2.1_2017q4/bin/../lib/gcc/arm-none-eabi/7.2.1/../../../../arm-none-eabi/lib/thumb/v7e-m/fpv4-sp/hard\libg_nano.a(lib_a-nano-mallocr.o)
                              c:/renesas/synergy/e2studio_v7.5.1_ssp_v1.7.5/toolchains/gcc_arm/7.2.1_2017q4/bin/../lib/gcc/arm-none-eabi/7.2.1/../../../../arm-none-eabi/lib/thumb/v7e-m/fpv4-sp/hard\libg_nano.a(lib_a-findfp.o) (_malloc_r)
c:/renesas/synergy/e2studio_v7.5.1_ssp_v1.7.5/toolchains/gcc_arm/7.2.1_2017q4/bin/../lib/gcc/arm-none-eabi/7.2.1/../../../../arm-none-eabi/lib/thumb/v7e-m/fpv4-sp/hard\libg_nano.a(lib_a-nano-vfprintf.o)
                              c:/renesas/synergy/e2studio_v7.5.1_ssp_v1.7.5/toolchains/gcc_arm/7.2.1_2017q4/bin/../lib/gcc/arm-none-eabi/7.2.1/../../../../arm-none-eabi/lib/thumb/v7e-m/fpv4-sp/hard\libg_nano.a(lib_a-printf.o) (_vfprintf_r)
c:/renesas/synergy/e2studio_v7.5.1_ssp_v1.7.5/toolchains/gcc_arm/7.2.1_2017q4/bin/../lib/gcc/arm-none-eabi/7.2.1/../../../../arm-none-eabi/lib/thumb/v7e-m/fpv4-sp/hard\libg_nano.a(lib_a-nano-vfprintf_i.o)
                              c:/renesas/synergy/e2studio_v7.5.1_ssp_v1.7.5/toolchains/gcc_arm/7.2.1_2017q4/bin/../lib/gcc/arm-none-eabi/7.2.1/../../../../arm-none-eabi/lib/thumb/v7e-m/fpv4-sp/hard\libg_nano.a(lib_a-nano-vfprintf.o) (_printf_i)
c:/renesas/synergy/e2studio_v7.5.1_ssp_v1.7.5/toolchains/gcc_arm/7.2.1_2017q4/bin/../lib/gcc/arm-none-eabi/7.2.1/../../../../arm-none-eabi/lib/thumb/v7e-m/fpv4-sp/hard\libg_nano.a(lib_a-sbrkr.o)
                              c:/renesas/synergy/e2studio_v7.5.1_ssp_v1.7.5/toolchains/gcc_arm/7.2.1_2017q4/bin/../lib/gcc/arm-none-eabi/7.2.1/../../../../arm-none-eabi/lib/thumb/v7e-m/fpv4-sp/hard\libg_nano.a(lib_a-nano-mallocr.o) (_sbrk_r)
c:/renesas/synergy/e2studio_v7.5.1_ssp_v1.7.5/toolchains/gcc_arm/7.2.1_2017q4/bin/../lib/gcc/arm-none-eabi/7.2.1/../../../../arm-none-eabi/lib/thumb/v7e-m/fpv4-sp/hard\libg_nano.a(lib_a-stdio.o)
                              c:/renesas/synergy/e2studio_v7.5.1_ssp_v1.7.5/toolchains/gcc_arm/7.2.1_2017q4/bin/../lib/gcc/arm-none-eabi/7.2.1/../../../../arm-none-eabi/lib/thumb/v7e-m/fpv4-sp/hard\libg_nano.a(lib_a-findfp.o) (__sread)
c:/renesas/synergy/e2studio_v7.5.1_ssp_v1.7.5/toolchains/gcc_arm/7.2.1_2017q4/bin/../lib/gcc/arm-none-eabi/7.2.1/../../../../arm-none-eabi/lib/thumb/v7e-m/fpv4-sp/hard\libg_nano.a(lib_a-wbuf.o)
                              c:/renesas/synergy/e2studio_v7.5.1_ssp_v1.7.5/toolchains/gcc_arm/7.2.1_2017q4/bin/../lib/gcc/arm-none-eabi/7.2.1/../../../../arm-none-eabi/lib/thumb/v7e-m/fpv4-sp/hard\libg_nano.a(lib_a-nano-vfprintf.o) (__swbuf_r)
c:/renesas/synergy/e2studio_v7.5.1_ssp_v1.7.5/toolchains/gcc_arm/7.2.1_2017q4/bin/../lib/gcc/arm-none-eabi/7.2.1/../../../../arm-none-eabi/lib/thumb/v7e-m/fpv4-sp/hard\libg_nano.a(lib_a-writer.o)
                              c:/renesas/synergy/e2studio_v7.5.1_ssp_v1.7.5/toolchains/gcc_arm/7.2.1_2017q4/bin/../lib/gcc/arm-none-eabi/7.2.1/../../../../arm-none-eabi/lib/thumb/v7e-m/fpv4-sp/hard\libg_nano.a(lib_a-stdio.o) (_write_r)
c:/renesas/synergy/e2studio_v7.5.1_ssp_v1.7.5/toolchains/gcc_arm/7.2.1_2017q4/bin/../lib/gcc/arm-none-eabi/7.2.1/../../../../arm-none-eabi/lib/thumb/v7e-m/fpv4-sp/hard\libg_nano.a(lib_a-wsetup.o)
                              c:/renesas/synergy/e2studio_v7.5.1_ssp_v1.7.5/toolchains/gcc_arm/7.2.1_2017q4/bin/../lib/gcc/arm-none-eabi/7.2.1/../../../../arm-none-eabi/lib/thumb/v7e-m/fpv4-sp/hard\libg_nano.a(lib_a-nano-vfprintf.o) (__swsetup_r)
c:/renesas/synergy/e2studio_v7.5.1_ssp_v1.7.5/toolchains/gcc_arm/7.2.1_2017q4/bin/../lib/gcc/arm-none-eabi/7.2.1/../../../../arm-none-eabi/lib/thumb/v7e-m/fpv4-sp/hard\libg_nano.a(lib_a-closer.o)
                              c:/renesas/synergy/e2studio_v7.5.1_ssp_v1.7.5/toolchains/gcc_arm/7.2.1_2017q4/bin/../lib/gcc/arm-none-eabi/7.2.1/../../../../arm-none-eabi/lib/thumb/v7e-m/fpv4-sp/hard\libg_nano.a(lib_a-stdio.o) (_close_r)
c:/renesas/synergy/e2studio_v7.5.1_ssp_v1.7.5/toolchains/gcc_arm/7.2.1_2017q4/bin/../lib/gcc/arm-none-eabi/7.2.1/../../../../arm-none-eabi/lib/thumb/v7e-m/fpv4-sp/hard\libg_nano.a(lib_a-fflush.o)
                              c:/renesas/synergy/e2studio_v7.5.1_ssp_v1.7.5/toolchains/gcc_arm/7.2.1_2017q4/bin/../lib/gcc/arm-none-eabi/7.2.1/../../../../arm-none-eabi/lib/thumb/v7e-m/fpv4-sp/hard\libg_nano.a(lib_a-findfp.o) (_fflush_r)
c:/renesas/synergy/e2studio_v7.5.1_ssp_v1.7.5/toolchains/gcc_arm/7.2.1_2017q4/bin/../lib/gcc/arm-none-eabi/7.2.1/../../../../arm-none-eabi/lib/thumb/v7e-m/fpv4-sp/hard\libg_nano.a(lib_a-fvwrite.o)
                              c:/renesas/synergy/e2studio_v7.5.1_ssp_v1.7.5/toolchains/gcc_arm/7.2.1_2017q4/bin/../lib/gcc/arm-none-eabi/7.2.1/../../../../arm-none-eabi/lib/thumb/v7e-m/fpv4-sp/hard\libg_nano.a(lib_a-nano-vfprintf.o) (__sfvwrite_r)
c:/renesas/synergy/e2studio_v7.5.1_ssp_v1.7.5/toolchains/gcc_arm/7.2.1_2017q4/bin/../lib/gcc/arm-none-eabi/7.2.1/../../../../arm-none-eabi/lib/thumb/v7e-m/fpv4-sp/hard\libg_nano.a(lib_a-lseekr.o)
                              c:/renesas/synergy/e2studio_v7.5.1_ssp_v1.7.5/toolchains/gcc_arm/7.2.1_2017q4/bin/../lib/gcc/arm-none-eabi/7.2.1/../../../../arm-none-eabi/lib/thumb/v7e-m/fpv4-sp/hard\libg_nano.a(lib_a-stdio.o) (_lseek_r)
c:/renesas/synergy/e2studio_v7.5.1_ssp_v1.7.5/toolchains/gcc_arm/7.2.1_2017q4/bin/../lib/gcc/arm-none-eabi/7.2.1/../../../../arm-none-eabi/lib/thumb/v7e-m/fpv4-sp/hard\libg_nano.a(lib_a-makebuf.o)
                              c:/renesas/synergy/e2studio_v7.5.1_ssp_v1.7.5/toolchains/gcc_arm/7.2.1_2017q4/bin/../lib/gcc/arm-none-eabi/7.2.1/../../../../arm-none-eabi/lib/thumb/v7e-m/fpv4-sp/hard\libg_nano.a(lib_a-wsetup.o) (__smakebuf_r)
c:/renesas/synergy/e2studio_v7.5.1_ssp_v1.7.5/toolchains/gcc_arm/7.2.1_2017q4/bin/../lib/gcc/arm-none-eabi/7.2.1/../../../../arm-none-eabi/lib/thumb/v7e-m/fpv4-sp/hard\libg_nano.a(lib_a-memchr.o)
                              c:/renesas/synergy/e2studio_v7.5.1_ssp_v1.7.5/toolchains/gcc_arm/7.2.1_2017q4/bin/../lib/gcc/arm-none-eabi/7.2.1/../../../../arm-none-eabi/lib/thumb/v7e-m/fpv4-sp/hard\libg_nano.a(lib_a-nano-vfprintf.o) (memchr)
c:/renesas/synergy/e2studio_v7.5.1_ssp_v1.7.5/toolchains/gcc_arm/7.2.1_2017q4/bin/../lib/gcc/arm-none-eabi/7.2.1/../../../../arm-none-eabi/lib/thumb/v7e-m/fpv4-sp/hard\libg_nano.a(lib_a-memcpy-stub.o)
                              c:/renesas/synergy/e2studio_v7.5.1_ssp_v1.7.5/toolchains/gcc_arm/7.2.1_2017q4/bin/../lib/gcc/arm-none-eabi/7.2.1/../../../../arm-none-eabi/lib/thumb/v7e-m/fpv4-sp/hard\libg_nano.a(lib_a-fvwrite.o) (memcpy)
c:/renesas/synergy/e2studio_v7.5.1_ssp_v1.7.5/toolchains/gcc_arm/7.2.1_2017q4/bin/../lib/gcc/arm-none-eabi/7.2.1/../../../../arm-none-eabi/lib/thumb/v7e-m/fpv4-sp/hard\libg_nano.a(lib_a-memmove.o)
                              c:/renesas/synergy/e2studio_v7.5.1_ssp_v1.7.5/toolchains/gcc_arm/7.2.1_2017q4/bin/../lib/gcc/arm-none-eabi/7.2.1/../../../../arm-none-eabi/lib/thumb/v7e-m/fpv4-sp/hard\libg_nano.a(lib_a-fvwrite.o) (memmove)
c:/renesas/synergy/e2studio_v7.5.1_ssp_v1.7.5/toolchains/gcc_arm/7.2.1_2017q4/bin/../lib/gcc/arm-none-eabi/7.2.1/../../../../arm-none-eabi/lib/thumb/v7e-m/fpv4-sp/hard\libg_nano.a(lib_a-mlock.o)
                              c:/renesas/synergy/e2studio_v7.5.1_ssp_v1.7.5/toolchains/gcc_arm/7.2.1_2017q4/bin/../lib/gcc/arm-none-eabi/7.2.1/../../../../arm-none-eabi/lib/thumb/v7e-m/fpv4-sp/hard\libg_nano.a(lib_a-nano-freer.o) (__malloc_lock)
c:/renesas/synergy/e2studio_v7.5.1_ssp_v1.7.5/toolchains/gcc_arm/7.2.1_2017q4/bin/../lib/gcc/arm-none-eabi/7.2.1/../../../../arm-none-eabi/lib/thumb/v7e-m/fpv4-sp/hard\libg_nano.a(lib_a-nano-reallocr.o)
                              c:/renesas/synergy/e2studio_v7.5.1_ssp_v1.7.5/toolchains/gcc_arm/7.2.1_2017q4/bin/../lib/gcc/arm-none-eabi/7.2.1/../../../../arm-none-eabi/lib/thumb/v7e-m/fpv4-sp/hard\libg_nano.a(lib_a-fvwrite.o) (_realloc_r)
c:/renesas/synergy/e2studio_v7.5.1_ssp_v1.7.5/toolchains/gcc_arm/7.2.1_2017q4/bin/../lib/gcc/arm-none-eabi/7.2.1/../../../../arm-none-eabi/lib/thumb/v7e-m/fpv4-sp/hard\libg_nano.a(lib_a-readr.o)
                              c:/renesas/synergy/e2studio_v7.5.1_ssp_v1.7.5/toolchains/gcc_arm/7.2.1_2017q4/bin/../lib/gcc/arm-none-eabi/7.2.1/../../../../arm-none-eabi/lib/thumb/v7e-m/fpv4-sp/hard\libg_nano.a(lib_a-stdio.o) (_read_r)
c:/renesas/synergy/e2studio_v7.5.1_ssp_v1.7.5/toolchains/gcc_arm/7.2.1_2017q4/bin/../lib/gcc/arm-none-eabi/7.2.1/../../../../arm-none-eabi/lib/thumb/v7e-m/fpv4-sp/hard\libg_nano.a(lib_a-reent.o)
                              c:/renesas/synergy/e2studio_v7.5.1_ssp_v1.7.5/toolchains/gcc_arm/7.2.1_2017q4/bin/../lib/gcc/arm-none-eabi/7.2.1/../../../../arm-none-eabi/lib/thumb/v7e-m/fpv4-sp/hard\libg_nano.a(lib_a-sbrkr.o) (errno)
c:/renesas/synergy/e2studio_v7.5.1_ssp_v1.7.5/toolchains/gcc_arm/7.2.1_2017q4/bin/../lib/gcc/arm-none-eabi/7.2.1/../../../../arm-none-eabi/lib/thumb/v7e-m/fpv4-sp/hard\libg_nano.a(lib_a-fstatr.o)
                              c:/renesas/synergy/e2studio_v7.5.1_ssp_v1.7.5/toolchains/gcc_arm/7.2.1_2017q4/bin/../lib/gcc/arm-none-eabi/7.2.1/../../../../arm-none-eabi/lib/thumb/v7e-m/fpv4-sp/hard\libg_nano.a(lib_a-makebuf.o) (_fstat_r)
c:/renesas/synergy/e2studio_v7.5.1_ssp_v1.7.5/toolchains/gcc_arm/7.2.1_2017q4/bin/../lib/gcc/arm-none-eabi/7.2.1/../../../../arm-none-eabi/lib/thumb/v7e-m/fpv4-sp/hard\libg_nano.a(lib_a-isattyr.o)
                              c:/renesas/synergy/e2studio_v7.5.1_ssp_v1.7.5/toolchains/gcc_arm/7.2.1_2017q4/bin/../lib/gcc/arm-none-eabi/7.2.1/../../../../arm-none-eabi/lib/thumb/v7e-m/fpv4-sp/hard\libg_nano.a(lib_a-makebuf.o) (_isatty_r)
c:/renesas/synergy/e2studio_v7.5.1_ssp_v1.7.5/toolchains/gcc_arm/7.2.1_2017q4/bin/../lib/gcc/arm-none-eabi/7.2.1/../../../../arm-none-eabi/lib/thumb/v7e-m/fpv4-sp/hard\libg_nano.a(lib_a-nano-msizer.o)
                              c:/renesas/synergy/e2studio_v7.5.1_ssp_v1.7.5/toolchains/gcc_arm/7.2.1_2017q4/bin/../lib/gcc/arm-none-eabi/7.2.1/../../../../arm-none-eabi/lib/thumb/v7e-m/fpv4-sp/hard\libg_nano.a(lib_a-nano-reallocr.o) (_malloc_usable_size_r)
c:/renesas/synergy/e2studio_v7.5.1_ssp_v1.7.5/toolchains/gcc_arm/7.2.1_2017q4/bin/../lib/gcc/arm-none-eabi/7.2.1/../../../../arm-none-eabi/lib/thumb/v7e-m/fpv4-sp/hard\librdimon_nano.a(rdimon-syscalls.o)
                              c:/renesas/synergy/e2studio_v7.5.1_ssp_v1.7.5/toolchains/gcc_arm/7.2.1_2017q4/bin/../lib/gcc/arm-none-eabi/7.2.1/../../../../arm-none-eabi/lib/thumb/v7e-m/fpv4-sp/hard\libg_nano.a(lib_a-readr.o) (_read)
c:/renesas/synergy/e2studio_v7.5.1_ssp_v1.7.5/toolchains/gcc_arm/7.2.1_2017q4/bin/../lib/gcc/arm-none-eabi/7.2.1/../../../../arm-none-eabi/lib/thumb/v7e-m/fpv4-sp/hard\librdimon_nano.a(rdimon-_exit.o)
                              c:/renesas/synergy/e2studio_v7.5.1_ssp_v1.7.5/toolchains/gcc_arm/7.2.1_2017q4/bin/../lib/gcc/arm-none-eabi/7.2.1/../../../../arm-none-eabi/lib/thumb/v7e-m/fpv4-sp/hard\libg_nano.a(lib_a-exit.o) (_exit)
c:/renesas/synergy/e2studio_v7.5.1_ssp_v1.7.5/toolchains/gcc_arm/7.2.1_2017q4/bin/../lib/gcc/arm-none-eabi/7.2.1/../../../../arm-none-eabi/lib/thumb/v7e-m/fpv4-sp/hard\librdimon_nano.a(rdimon-_kill.o)
                              c:/renesas/synergy/e2studio_v7.5.1_ssp_v1.7.5/toolchains/gcc_arm/7.2.1_2017q4/bin/../lib/gcc/arm-none-eabi/7.2.1/../../../../arm-none-eabi/lib/thumb/v7e-m/fpv4-sp/hard\librdimon_nano.a(rdimon-_exit.o) (_kill)
c:/renesas/synergy/e2studio_v7.5.1_ssp_v1.7.5/toolchains/gcc_arm/7.2.1_2017q4/bin/../lib/gcc/arm-none-eabi/7.2.1/../../../../arm-none-eabi/lib/thumb/v7e-m/fpv4-sp/hard\libc_nano.a(lib_a-strlen.o)
                              c:/renesas/synergy/e2studio_v7.5.1_ssp_v1.7.5/toolchains/gcc_arm/7.2.1_2017q4/bin/../lib/gcc/arm-none-eabi/7.2.1/../../../../arm-none-eabi/lib/thumb/v7e-m/fpv4-sp/hard\librdimon_nano.a(rdimon-syscalls.o) (strlen)

Allocating common symbols
Common symbol       size              file

_tx_thread_priority_list
                    0x80              C:\Users\kirti\PK_S5D9\verify\synergy\ssp\src\framework\el\tx\cm4_gcc\libtx.a(tx_thread_initialize.o)
g_adc0_ctrl         0x38              ./src/synergy_gen/thread0.o
_tx_timer_current_ptr
                    0x4               C:\Users\kirti\PK_S5D9\verify\synergy\ssp\src\framework\el\tx\cm4_gcc\libtx.a(tx_timer_initialize.o)
_tx_timer_list      0x80              C:\Users\kirti\PK_S5D9\verify\synergy\ssp\src\framework\el\tx\cm4_gcc\libtx.a(tx_timer_initialize.o)
_tx_thread_mutex_release
                    0x4               C:\Users\kirti\PK_S5D9\verify\synergy\ssp\src\framework\el\tx\cm4_gcc\libtx.a(tx_thread_initialize.o)
g_modbus_queue      0x38              ./src/synergy_gen/thread0.o
_tx_thread_priority_maps
                    0x4               C:\Users\kirti\PK_S5D9\verify\synergy\ssp\src\framework\el\tx\cm4_gcc\libtx.a(tx_thread_initialize.o)
errno               0x4               c:/renesas/synergy/e2studio_v7.5.1_ssp_v1.7.5/toolchains/gcc_arm/7.2.1_2017q4/bin/../lib/gcc/arm-none-eabi/7.2.1/../../../../arm-none-eabi/lib/thumb/v7e-m/fpv4-sp/hard\libg_nano.a(lib_a-reent.o)
_tx_event_flags_created_ptr
                    0x4               C:\Users\kirti\PK_S5D9\verify\synergy\ssp\src\framework\el\tx\cm4_gcc\libtx.a(tx_initialize_high_level.o)
_tx_mutex_created_count
                    0x4               C:\Users\kirti\PK_S5D9\verify\synergy\ssp\src\framework\el\tx\cm4_gcc\libtx.a(tx_initialize_high_level.o)
_tx_mutex_created_ptr
                    0x4               C:\Users\kirti\PK_S5D9\verify\synergy\ssp\src\framework\el\tx\cm4_gcc\libtx.a(tx_initialize_high_level.o)
_tx_queue_created_count
                    0x4               C:\Users\kirti\PK_S5D9\verify\synergy\ssp\src\framework\el\tx\cm4_gcc\libtx.a(tx_initialize_high_level.o)
_tx_semaphore_created_ptr
                    0x4               C:\Users\kirti\PK_S5D9\verify\synergy\ssp\src\framework\el\tx\cm4_gcc\libtx.a(tx_initialize_high_level.o)
_tx_byte_pool_created_ptr
                    0x4               C:\Users\kirti\PK_S5D9\verify\synergy\ssp\src\framework\el\tx\cm4_gcc\libtx.a(tx_initialize_high_level.o)
_tx_thread_created_ptr
                    0x4               C:\Users\kirti\PK_S5D9\verify\synergy\ssp\src\framework\el\tx\cm4_gcc\libtx.a(tx_thread_initialize.o)
g_transfer0_ctrl    0x10              ./src/synergy_gen/thread0.o
_tx_timer_expired   0x4               C:\Users\kirti\PK_S5D9\verify\synergy\ssp\src\framework\el\tx\cm4_gcc\libtx.a(tx_timer_initialize.o)
_tx_initialize_unused_memory
                    0x4               C:\Users\kirti\PK_S5D9\verify\synergy\ssp\src\framework\el\tx\cm4_gcc\libtx.a(tx_initialize_high_level.o)
_tx_build_options   0x4               C:\Users\kirti\PK_S5D9\verify\synergy\ssp\src\framework\el\tx\cm4_gcc\libtx.a(tx_thread_initialize.o)
_tx_timer_time_slice
                    0x4               C:\Users\kirti\PK_S5D9\verify\synergy\ssp\src\framework\el\tx\cm4_gcc\libtx.a(tx_timer_initialize.o)
_tx_thread_created_count
                    0x4               C:\Users\kirti\PK_S5D9\verify\synergy\ssp\src\framework\el\tx\cm4_gcc\libtx.a(tx_thread_initialize.o)
g_ssp_common_initialized
                    0x1               ./src/synergy_gen/main.o
_tx_block_pool_created_count
                    0x4               C:\Users\kirti\PK_S5D9\verify\synergy\ssp\src\framework\el\tx\cm4_gcc\libtx.a(tx_initialize_high_level.o)
_tx_thread_system_stack_ptr
                    0x4               C:\Users\kirti\PK_S5D9\verify\synergy\ssp\src\framework\el\tx\cm4_gcc\libtx.a(tx_thread_initialize.o)
led                 0x8               ./src/thread0_entry.o
g_ssp_common_initialized_semaphore
                    0x1c              ./src/synergy_gen/main.o
_tx_timer_list_end  0x4               C:\Users\kirti\PK_S5D9\verify\synergy\ssp\src\framework\el\tx\cm4_gcc\libtx.a(tx_timer_initialize.o)
_tx_timer_processing_active
                    0x4               C:\Users\kirti\PK_S5D9\verify\synergy\ssp\src\framework\el\tx\cm4_gcc\libtx.a(tx_timer_initialize.o)
thread0             0xb8              ./src/synergy_gen/thread0.o
_tx_timer_expired_timer_ptr
                    0x4               C:\Users\kirti\PK_S5D9\verify\synergy\ssp\src\framework\el\tx\cm4_gcc\libtx.a(tx_timer_initialize.o)
g_uart_semaphore0   0x1c              ./src/synergy_gen/thread0.o
_tx_thread_preempt_disable
                    0x4               C:\Users\kirti\PK_S5D9\verify\synergy\ssp\src\framework\el\tx\cm4_gcc\libtx.a(tx_thread_initialize.o)
_tx_timer_list_start
                    0x4               C:\Users\kirti\PK_S5D9\verify\synergy\ssp\src\framework\el\tx\cm4_gcc\libtx.a(tx_timer_initialize.o)
_tx_thread_current_ptr
                    0x4               C:\Users\kirti\PK_S5D9\verify\synergy\ssp\src\framework\el\tx\cm4_gcc\libtx.a(tx_thread_initialize.o)
_tx_timer_created_ptr
                    0x4               C:\Users\kirti\PK_S5D9\verify\synergy\ssp\src\framework\el\tx\cm4_gcc\libtx.a(tx_timer_initialize.o)
g_uart0_ctrl        0x40              ./src/synergy_gen/thread0.o
_tx_thread_execute_ptr
                    0x4               C:\Users\kirti\PK_S5D9\verify\synergy\ssp\src\framework\el\tx\cm4_gcc\libtx.a(tx_thread_initialize.o)
_tx_timer_created_count
                    0x4               C:\Users\kirti\PK_S5D9\verify\synergy\ssp\src\framework\el\tx\cm4_gcc\libtx.a(tx_timer_initialize.o)
_tx_semaphore_created_count
                    0x4               C:\Users\kirti\PK_S5D9\verify\synergy\ssp\src\framework\el\tx\cm4_gcc\libtx.a(tx_initialize_high_level.o)
_tx_thread_highest_priority
                    0x4               C:\Users\kirti\PK_S5D9\verify\synergy\ssp\src\framework\el\tx\cm4_gcc\libtx.a(tx_thread_initialize.o)
g_ssp_common_thread_count
                    0x4               ./src/synergy_gen/main.o
_tx_timer_expired_time_slice
                    0x4               C:\Users\kirti\PK_S5D9\verify\synergy\ssp\src\framework\el\tx\cm4_gcc\libtx.a(tx_timer_initialize.o)
_tx_timer_system_clock
                    0x4               C:\Users\kirti\PK_S5D9\verify\synergy\ssp\src\framework\el\tx\cm4_gcc\libtx.a(tx_timer_initialize.o)
_tx_event_flags_created_count
                    0x4               C:\Users\kirti\PK_S5D9\verify\synergy\ssp\src\framework\el\tx\cm4_gcc\libtx.a(tx_initialize_high_level.o)
_tx_block_pool_created_ptr
                    0x4               C:\Users\kirti\PK_S5D9\verify\synergy\ssp\src\framework\el\tx\cm4_gcc\libtx.a(tx_initialize_high_level.o)
g_serial_RX_queue   0x38              ./src/synergy_gen/thread0.o
_tx_queue_created_ptr
                    0x4               C:\Users\kirti\PK_S5D9\verify\synergy\ssp\src\framework\el\tx\cm4_gcc\libtx.a(tx_initialize_high_level.o)
_tx_byte_pool_created_count
                    0x4               C:\Users\kirti\PK_S5D9\verify\synergy\ssp\src\framework\el\tx\cm4_gcc\libtx.a(tx_initialize_high_level.o)

Discarded input sections

 .text          0x00000000        0x0 c:/renesas/synergy/e2studio_v7.5.1_ssp_v1.7.5/toolchains/gcc_arm/7.2.1_2017q4/bin/../lib/gcc/arm-none-eabi/7.2.1/thumb/v7e-m/fpv4-sp/hard/crti.o
 .data          0x00000000        0x0 c:/renesas/synergy/e2studio_v7.5.1_ssp_v1.7.5/toolchains/gcc_arm/7.2.1_2017q4/bin/../lib/gcc/arm-none-eabi/7.2.1/thumb/v7e-m/fpv4-sp/hard/crti.o
 .bss           0x00000000        0x0 c:/renesas/synergy/e2studio_v7.5.1_ssp_v1.7.5/toolchains/gcc_arm/7.2.1_2017q4/bin/../lib/gcc/arm-none-eabi/7.2.1/thumb/v7e-m/fpv4-sp/hard/crti.o
 .data          0x00000000        0x4 c:/renesas/synergy/e2studio_v7.5.1_ssp_v1.7.5/toolchains/gcc_arm/7.2.1_2017q4/bin/../lib/gcc/arm-none-eabi/7.2.1/thumb/v7e-m/fpv4-sp/hard/crtbegin.o
 .text          0x00000000       0xe8 c:/renesas/synergy/e2studio_v7.5.1_ssp_v1.7.5/toolchains/gcc_arm/7.2.1_2017q4/bin/../lib/gcc/arm-none-eabi/7.2.1/../../../../arm-none-eabi/lib/thumb/v7e-m/fpv4-sp/hard/rdimon-crt0.o
 .data          0x00000000      0x118 c:/renesas/synergy/e2studio_v7.5.1_ssp_v1.7.5/toolchains/gcc_arm/7.2.1_2017q4/bin/../lib/gcc/arm-none-eabi/7.2.1/../../../../arm-none-eabi/lib/thumb/v7e-m/fpv4-sp/hard/rdimon-crt0.o
 .bss           0x00000000        0x0 c:/renesas/synergy/e2studio_v7.5.1_ssp_v1.7.5/toolchains/gcc_arm/7.2.1_2017q4/bin/../lib/gcc/arm-none-eabi/7.2.1/../../../../arm-none-eabi/lib/thumb/v7e-m/fpv4-sp/hard/rdimon-crt0.o
 .ARM.extab     0x00000000        0x0 c:/renesas/synergy/e2studio_v7.5.1_ssp_v1.7.5/toolchains/gcc_arm/7.2.1_2017q4/bin/../lib/gcc/arm-none-eabi/7.2.1/../../../../arm-none-eabi/lib/thumb/v7e-m/fpv4-sp/hard/rdimon-crt0.o
 .ARM.exidx     0x00000000        0x8 c:/renesas/synergy/e2studio_v7.5.1_ssp_v1.7.5/toolchains/gcc_arm/7.2.1_2017q4/bin/../lib/gcc/arm-none-eabi/7.2.1/../../../../arm-none-eabi/lib/thumb/v7e-m/fpv4-sp/hard/rdimon-crt0.o
 .ARM.attributes
                0x00000000       0x20 c:/renesas/synergy/e2studio_v7.5.1_ssp_v1.7.5/toolchains/gcc_arm/7.2.1_2017q4/bin/../lib/gcc/arm-none-eabi/7.2.1/../../../../arm-none-eabi/lib/thumb/v7e-m/fpv4-sp/hard/rdimon-crt0.o
 .text          0x00000000        0x0 ./synergy/ssp/src/driver/r_sci_uart/r_sci_uart.o
 .data          0x00000000        0x0 ./synergy/ssp/src/driver/r_sci_uart/r_sci_uart.o
 .bss           0x00000000        0x0 ./synergy/ssp/src/driver/r_sci_uart/r_sci_uart.o
 .text.R_SCI_UartVersionGet
                0x00000000       0x14 ./synergy/ssp/src/driver/r_sci_uart/r_sci_uart.o
 .text.r_sci_uart_transfer_close
                0x00000000       0x28 ./synergy/ssp/src/driver/r_sci_uart/r_sci_uart.o
 .text.r_sci_uart_brr_mddr_calculate
                0x00000000       0xe8 ./synergy/ssp/src/driver/r_sci_uart/r_sci_uart.o
 .text.R_SCI_UartInfoGet
                0x00000000       0x84 ./synergy/ssp/src/driver/r_sci_uart/r_sci_uart.o
 .text.r_sci_read_write_param_check
                0x00000000       0x40 ./synergy/ssp/src/driver/r_sci_uart/r_sci_uart.o
 .text.R_SCI_UartRead
                0x00000000       0x78 ./synergy/ssp/src/driver/r_sci_uart/r_sci_uart.o
 .text.r_sci_uart_transfer_configure.isra.7
                0x00000000       0x88 ./synergy/ssp/src/driver/r_sci_uart/r_sci_uart.o
 .text.r_sci_uart_baud_calculate.part.12
                0x00000000       0x74 ./synergy/ssp/src/driver/r_sci_uart/r_sci_uart.o
 .text.R_SCI_UartBaudSet
                0x00000000       0xcc ./synergy/ssp/src/driver/r_sci_uart/r_sci_uart.o
 .text.R_SCI_UartClose
                0x00000000      0x100 ./synergy/ssp/src/driver/r_sci_uart/r_sci_uart.o
 .text.r_sci_irq_cfg
                0x00000000       0x90 ./synergy/ssp/src/driver/r_sci_uart/r_sci_uart.o
 .text.R_SCI_UartOpen
                0x00000000      0x52c ./synergy/ssp/src/driver/r_sci_uart/r_sci_uart.o
 .text.R_SCI_UartAbort
                0x00000000      0x150 ./synergy/ssp/src/driver/r_sci_uart/r_sci_uart.o
 .text.R_SCI_UartWrite
                0x00000000      0x120 ./synergy/ssp/src/driver/r_sci_uart/r_sci_uart.o
 .text.sci_uart_eri_isr
                0x00000000       0xa0 ./synergy/ssp/src/driver/r_sci_uart/r_sci_uart.o
 .rodata.async_baud
                0x00000000       0x4e ./synergy/ssp/src/driver/r_sci_uart/r_sci_uart.o
 .rodata.g_sci_uart_fifo_depth
                0x00000000        0x4 ./synergy/ssp/src/driver/r_sci_uart/r_sci_uart.o
 .rodata.g_uart_on_sci
                0x00000000       0x20 ./synergy/ssp/src/driver/r_sci_uart/r_sci_uart.o
 .text          0x00000000        0x0 ./synergy/ssp/src/driver/r_ioport/r_ioport.o
 .data          0x00000000        0x0 ./synergy/ssp/src/driver/r_ioport/r_ioport.o
 .bss           0x00000000        0x0 ./synergy/ssp/src/driver/r_ioport/r_ioport.o
 .text          0x00000000        0x0 ./synergy/ssp/src/driver/r_gpt/r_gpt.o
 .data          0x00000000        0x0 ./synergy/ssp/src/driver/r_gpt/r_gpt.o
 .bss           0x00000000        0x0 ./synergy/ssp/src/driver/r_gpt/r_gpt.o
 .text.R_GPT_Stop
                0x00000000       0x28 ./synergy/ssp/src/driver/r_gpt/r_gpt.o
 .text.R_GPT_Start
                0x00000000       0x28 ./synergy/ssp/src/driver/r_gpt/r_gpt.o
 .text.R_GPT_VersionGet
                0x00000000       0x14 ./synergy/ssp/src/driver/r_gpt/r_gpt.o
 .text.gpt_period_to_pclk
                0x00000000      0x108 ./synergy/ssp/src/driver/r_gpt/r_gpt.o
 .text.gpt_duty_cycle_to_pclk
                0x00000000       0x80 ./synergy/ssp/src/driver/r_gpt/r_gpt.o
 .text.R_GPT_Close
                0x00000000       0xa0 ./synergy/ssp/src/driver/r_gpt/r_gpt.o
 .text.R_GPT_CounterGet
                0x00000000       0x24 ./synergy/ssp/src/driver/r_gpt/r_gpt.o
 .text.R_GPT_Reset
                0x00000000       0x5c ./synergy/ssp/src/driver/r_gpt/r_gpt.o
 .text.R_GPT_PeriodSet
                0x00000000       0x74 ./synergy/ssp/src/driver/r_gpt/r_gpt.o
 .text.R_GPT_DutyCycleSet
                0x00000000       0x98 ./synergy/ssp/src/driver/r_gpt/r_gpt.o
 .text.R_GPT_InfoGet
                0x00000000       0x98 ./synergy/ssp/src/driver/r_gpt/r_gpt.o
 .text.R_GPT_TimerOpen
                0x00000000      0x464 ./synergy/ssp/src/driver/r_gpt/r_gpt.o
 .rodata.g_gpt_version
                0x00000000        0x4 ./synergy/ssp/src/driver/r_gpt/r_gpt.o
 .rodata.g_timer_on_gpt
                0x00000000       0x28 ./synergy/ssp/src/driver/r_gpt/r_gpt.o
 .text          0x00000000        0x0 ./synergy/ssp/src/driver/r_fmi/r_fmi.o
 .data          0x00000000        0x0 ./synergy/ssp/src/driver/r_fmi/r_fmi.o
 .bss           0x00000000        0x0 ./synergy/ssp/src/driver/r_fmi/r_fmi.o
 .text          0x00000000        0x0 ./synergy/ssp/src/driver/r_elc/r_elc.o
 .data          0x00000000        0x0 ./synergy/ssp/src/driver/r_elc/r_elc.o
 .bss           0x00000000        0x0 ./synergy/ssp/src/driver/r_elc/r_elc.o
 .text          0x00000000        0x0 ./synergy/ssp/src/driver/r_dtc/r_dtc.o
 .data          0x00000000        0x0 ./synergy/ssp/src/driver/r_dtc/r_dtc.o
 .bss           0x00000000        0x0 ./synergy/ssp/src/driver/r_dtc/r_dtc.o
 .text.R_DTC_Start
                0x00000000        0x4 ./synergy/ssp/src/driver/r_dtc/r_dtc.o
 .text.R_DTC_Stop
                0x00000000        0x4 ./synergy/ssp/src/driver/r_dtc/r_dtc.o
 .text.R_DTC_Disable
                0x00000000       0x34 ./synergy/ssp/src/driver/r_dtc/r_dtc.o
 .text.R_DTC_VersionGet
                0x00000000       0x14 ./synergy/ssp/src/driver/r_dtc/r_dtc.o
 .text.R_DTC_InfoGet
                0x00000000       0x78 ./synergy/ssp/src/driver/r_dtc/r_dtc.o
 .text.R_DTC_Close
                0x00000000       0x54 ./synergy/ssp/src/driver/r_dtc/r_dtc.o
 .text.R_DTC_Enable
                0x00000000       0x84 ./synergy/ssp/src/driver/r_dtc/r_dtc.o
 .text.R_DTC_Reset
                0x00000000       0xa4 ./synergy/ssp/src/driver/r_dtc/r_dtc.o
 .text.R_DTC_BlockReset
                0x00000000       0xac ./synergy/ssp/src/driver/r_dtc/r_dtc.o
 .text.R_DTC_Open
                0x00000000      0x178 ./synergy/ssp/src/driver/r_dtc/r_dtc.o
 .text.elc_software_event_isr
                0x00000000       0x50 ./synergy/ssp/src/driver/r_dtc/r_dtc.o
 .bss.g_dtc_state_initialized
                0x00000000        0x1 ./synergy/ssp/src/driver/r_dtc/r_dtc.o
 .bss.gp_dtc_regs
                0x00000000        0x4 ./synergy/ssp/src/driver/r_dtc/r_dtc.o
 .bss.gp_icu_regs
                0x00000000        0x4 ./synergy/ssp/src/driver/r_dtc/r_dtc.o
 .rodata.g_dtc_version
                0x00000000        0x4 ./synergy/ssp/src/driver/r_dtc/r_dtc.o
 .rodata.g_transfer_on_dtc
                0x00000000       0x28 ./synergy/ssp/src/driver/r_dtc/r_dtc.o
 .ssp_dtc_vector_table
                0x00000000      0x1c0 ./synergy/ssp/src/driver/r_dtc/r_dtc.o
 .debug_info    0x00000000     0x453b ./synergy/ssp/src/driver/r_dtc/r_dtc.o
 .debug_abbrev  0x00000000      0x5bb ./synergy/ssp/src/driver/r_dtc/r_dtc.o
 .debug_loc     0x00000000     0x11a7 ./synergy/ssp/src/driver/r_dtc/r_dtc.o
 .debug_aranges
                0x00000000       0x70 ./synergy/ssp/src/driver/r_dtc/r_dtc.o
 .debug_ranges  0x00000000      0x2c0 ./synergy/ssp/src/driver/r_dtc/r_dtc.o
 .debug_line    0x00000000      0x891 ./synergy/ssp/src/driver/r_dtc/r_dtc.o
 .debug_str     0x00000000     0x67b6 ./synergy/ssp/src/driver/r_dtc/r_dtc.o
 .comment       0x00000000       0x7f ./synergy/ssp/src/driver/r_dtc/r_dtc.o
 .debug_frame   0x00000000      0x184 ./synergy/ssp/src/driver/r_dtc/r_dtc.o
 .ARM.attributes
                0x00000000       0x39 ./synergy/ssp/src/driver/r_dtc/r_dtc.o
 .text          0x00000000        0x0 ./synergy/ssp/src/driver/r_cgc/r_cgc.o
 .data          0x00000000        0x0 ./synergy/ssp/src/driver/r_cgc/r_cgc.o
 .bss           0x00000000        0x0 ./synergy/ssp/src/driver/r_cgc/r_cgc.o
 .text.r_cgc_operating_mode_get
                0x00000000       0x14 ./synergy/ssp/src/driver/r_cgc/r_cgc.o
 .text.r_cgc_hoco_wait_control_set
                0x00000000       0x24 ./synergy/ssp/src/driver/r_cgc/r_cgc.o
 .text          0x00000000        0x0 ./synergy/ssp/src/driver/r_adc/r_adc.o
 .data          0x00000000        0x0 ./synergy/ssp/src/driver/r_adc/r_adc.o
 .bss           0x00000000        0x0 ./synergy/ssp/src/driver/r_adc/r_adc.o
 .text.r_adc_open_configure_pga_settings
                0x00000000        0xc ./synergy/ssp/src/driver/r_adc/r_adc.o
 .text.adc_scan_end_b_isr
                0x00000000       0x58 ./synergy/ssp/src/driver/r_adc/r_adc.o
 .text          0x00000000        0x0 ./synergy/ssp/src/bsp/mcu/s5d9/bsp_cache.o
 .data          0x00000000        0x0 ./synergy/ssp/src/bsp/mcu/s5d9/bsp_cache.o
 .bss           0x00000000        0x0 ./synergy/ssp/src/bsp/mcu/s5d9/bsp_cache.o
 .text          0x00000000        0x0 ./synergy/ssp/src/bsp/mcu/s5d9/bsp_clocks.o
 .data          0x00000000        0x0 ./synergy/ssp/src/bsp/mcu/s5d9/bsp_clocks.o
 .bss           0x00000000        0x0 ./synergy/ssp/src/bsp/mcu/s5d9/bsp_clocks.o
 .text          0x00000000        0x0 ./synergy/ssp/src/bsp/mcu/s5d9/bsp_feature.o
 .data          0x00000000        0x0 ./synergy/ssp/src/bsp/mcu/s5d9/bsp_feature.o
 .bss           0x00000000        0x0 ./synergy/ssp/src/bsp/mcu/s5d9/bsp_feature.o
 .text.R_BSP_FeatureSciGet
                0x00000000        0x8 ./synergy/ssp/src/bsp/mcu/s5d9/bsp_feature.o
 .text.R_BSP_FeatureRspiGet
                0x00000000       0x10 ./synergy/ssp/src/bsp/mcu/s5d9/bsp_feature.o
 .text.R_BSP_FeatureLvdGet
                0x00000000       0x24 ./synergy/ssp/src/bsp/mcu/s5d9/bsp_feature.o
 .text.R_BSP_FeatureAcmphsGet
                0x00000000        0x8 ./synergy/ssp/src/bsp/mcu/s5d9/bsp_feature.o
 .text.R_BSP_FeatureCanGet
                0x00000000       0x14 ./synergy/ssp/src/bsp/mcu/s5d9/bsp_feature.o
 .text.R_BSP_FeatureDacGet
                0x00000000       0x10 ./synergy/ssp/src/bsp/mcu/s5d9/bsp_feature.o
 .text.R_BSP_FeatureCtsuGet
                0x00000000       0x1c ./synergy/ssp/src/bsp/mcu/s5d9/bsp_feature.o
 .text.R_BSP_FeatureSdhiGet
                0x00000000       0x14 ./synergy/ssp/src/bsp/mcu/s5d9/bsp_feature.o
 .text.R_BSP_FeatureSsiGet
                0x00000000        0x8 ./synergy/ssp/src/bsp/mcu/s5d9/bsp_feature.o
 .text.R_BSP_FeatureICUGet
                0x00000000        0xc ./synergy/ssp/src/bsp/mcu/s5d9/bsp_feature.o
 .text.R_BSP_FeatureLPMV2Get
                0x00000000        0xc ./synergy/ssp/src/bsp/mcu/s5d9/bsp_feature.o
 .text          0x00000000        0x0 ./synergy/ssp/src/bsp/mcu/s5d9/bsp_fmi_R7FS5D97E3A01CFC.o
 .data          0x00000000        0x0 ./synergy/ssp/src/bsp/mcu/s5d9/bsp_fmi_R7FS5D97E3A01CFC.o
 .bss           0x00000000        0x0 ./synergy/ssp/src/bsp/mcu/s5d9/bsp_fmi_R7FS5D97E3A01CFC.o
 .text          0x00000000        0x0 ./synergy/ssp/src/bsp/mcu/s5d9/bsp_group_irq.o
 .data          0x00000000        0x0 ./synergy/ssp/src/bsp/mcu/s5d9/bsp_group_irq.o
 .bss           0x00000000        0x0 ./synergy/ssp/src/bsp/mcu/s5d9/bsp_group_irq.o
 .text.bsp_group_irq_call
                0x00000000       0x18 ./synergy/ssp/src/bsp/mcu/s5d9/bsp_group_irq.o
 .text          0x00000000        0x0 ./synergy/ssp/src/bsp/mcu/s5d9/bsp_hw_locks.o
 .data          0x00000000        0x0 ./synergy/ssp/src/bsp/mcu/s5d9/bsp_hw_locks.o
 .bss           0x00000000        0x0 ./synergy/ssp/src/bsp/mcu/s5d9/bsp_hw_locks.o
 .text          0x00000000        0x0 ./synergy/ssp/src/bsp/mcu/s5d9/bsp_module_stop.o
 .data          0x00000000        0x0 ./synergy/ssp/src/bsp/mcu/s5d9/bsp_module_stop.o
 .bss           0x00000000        0x0 ./synergy/ssp/src/bsp/mcu/s5d9/bsp_module_stop.o
 .text.R_BSP_ModuleStopAlways
                0x00000000        0x8 ./synergy/ssp/src/bsp/mcu/s5d9/bsp_module_stop.o
 .text.R_BSP_ModuleStateGet
                0x00000000       0x40 ./synergy/ssp/src/bsp/mcu/s5d9/bsp_module_stop.o
 .text          0x00000000        0x0 ./synergy/ssp/src/bsp/mcu/s5d9/bsp_rom_registers.o
 .data          0x00000000        0x0 ./synergy/ssp/src/bsp/mcu/s5d9/bsp_rom_registers.o
 .bss           0x00000000        0x0 ./synergy/ssp/src/bsp/mcu/s5d9/bsp_rom_registers.o
 .text          0x00000000        0x0 ./synergy/ssp/src/bsp/mcu/all/bsp_common.o
 .data          0x00000000        0x0 ./synergy/ssp/src/bsp/mcu/all/bsp_common.o
 .bss           0x00000000        0x0 ./synergy/ssp/src/bsp/mcu/all/bsp_common.o
 .text.R_BSP_VersionGet
                0x00000000       0x14 ./synergy/ssp/src/bsp/mcu/all/bsp_common.o
 .text.R_SSP_VersionGet
                0x00000000       0x14 ./synergy/ssp/src/bsp/mcu/all/bsp_common.o
 .text.bsp_init_internal
                0x00000000        0x4 ./synergy/ssp/src/bsp/mcu/all/bsp_common.o
 .text          0x00000000        0x0 ./synergy/ssp/src/bsp/mcu/all/bsp_common_leds.o
 .data          0x00000000        0x0 ./synergy/ssp/src/bsp/mcu/all/bsp_common_leds.o
 .bss           0x00000000        0x0 ./synergy/ssp/src/bsp/mcu/all/bsp_common_leds.o
 .text          0x00000000        0x0 ./synergy/ssp/src/bsp/mcu/all/bsp_delay.o
 .data          0x00000000        0x0 ./synergy/ssp/src/bsp/mcu/all/bsp_delay.o
 .bss           0x00000000        0x0 ./synergy/ssp/src/bsp/mcu/all/bsp_delay.o
 .text          0x00000000        0x0 ./synergy/ssp/src/bsp/mcu/all/bsp_irq.o
 .data          0x00000000        0x0 ./synergy/ssp/src/bsp/mcu/all/bsp_irq.o
 .bss           0x00000000        0x0 ./synergy/ssp/src/bsp/mcu/all/bsp_irq.o
 .text          0x00000000        0x0 ./synergy/ssp/src/bsp/mcu/all/bsp_locking.o
 .data          0x00000000        0x0 ./synergy/ssp/src/bsp/mcu/all/bsp_locking.o
 .bss           0x00000000        0x0 ./synergy/ssp/src/bsp/mcu/all/bsp_locking.o
 .text.R_BSP_SoftwareLock
                0x00000000       0x20 ./synergy/ssp/src/bsp/mcu/all/bsp_locking.o
 .text.R_BSP_SoftwareUnlock
                0x00000000        0x8 ./synergy/ssp/src/bsp/mcu/all/bsp_locking.o
 .text.R_BSP_SoftwareLockInit
                0x00000000        0x8 ./synergy/ssp/src/bsp/mcu/all/bsp_locking.o
 .text          0x00000000        0x0 ./synergy/ssp/src/bsp/mcu/all/bsp_register_protection.o
 .data          0x00000000        0x0 ./synergy/ssp/src/bsp/mcu/all/bsp_register_protection.o
 .bss           0x00000000        0x0 ./synergy/ssp/src/bsp/mcu/all/bsp_register_protection.o
 .text          0x00000000        0x0 ./synergy/ssp/src/bsp/mcu/all/bsp_sbrk.o
 .data          0x00000000        0x0 ./synergy/ssp/src/bsp/mcu/all/bsp_sbrk.o
 .bss           0x00000000        0x0 ./synergy/ssp/src/bsp/mcu/all/bsp_sbrk.o
 .text          0x00000000        0x0 ./synergy/ssp/src/bsp/cmsis/Device/RENESAS/S5D9/Source/startup_S5D9.o
 .data          0x00000000        0x0 ./synergy/ssp/src/bsp/cmsis/Device/RENESAS/S5D9/Source/startup_S5D9.o
 .bss           0x00000000        0x0 ./synergy/ssp/src/bsp/cmsis/Device/RENESAS/S5D9/Source/startup_S5D9.o
 .text          0x00000000        0x0 ./synergy/ssp/src/bsp/cmsis/Device/RENESAS/S5D9/Source/system_S5D9.o
 .data          0x00000000        0x0 ./synergy/ssp/src/bsp/cmsis/Device/RENESAS/S5D9/Source/system_S5D9.o
 .bss           0x00000000        0x0 ./synergy/ssp/src/bsp/cmsis/Device/RENESAS/S5D9/Source/system_S5D9.o
 .text.SystemCoreClockUpdate
                0x00000000       0x10 ./synergy/ssp/src/bsp/cmsis/Device/RENESAS/S5D9/Source/system_S5D9.o
 .text          0x00000000        0x0 ./synergy/board/s5d9_pk/bsp_init.o
 .data          0x00000000        0x0 ./synergy/board/s5d9_pk/bsp_init.o
 .bss           0x00000000        0x0 ./synergy/board/s5d9_pk/bsp_init.o
 .text          0x00000000        0x0 ./synergy/board/s5d9_pk/bsp_leds.o
 .data          0x00000000        0x0 ./synergy/board/s5d9_pk/bsp_leds.o
 .bss           0x00000000        0x0 ./synergy/board/s5d9_pk/bsp_leds.o
 .text          0x00000000        0x0 ./synergy/board/s5d9_pk/bsp_qspi.o
 .data          0x00000000        0x0 ./synergy/board/s5d9_pk/bsp_qspi.o
 .bss           0x00000000        0x0 ./synergy/board/s5d9_pk/bsp_qspi.o
 .text.bsp_qspi_xip_enter
                0x00000000       0x10 ./synergy/board/s5d9_pk/bsp_qspi.o
 .text.bsp_qspi_xip_exit
                0x00000000       0x10 ./synergy/board/s5d9_pk/bsp_qspi.o
 .text.bsp_qspi_status_get
                0x00000000       0x1c ./synergy/board/s5d9_pk/bsp_qspi.o
 .text.bsp_qspi_config_get
                0x00000000       0x88 ./synergy/board/s5d9_pk/bsp_qspi.o
 .text.bsp_qspi_erase_sizes_get
                0x00000000       0x10 ./synergy/board/s5d9_pk/bsp_qspi.o
 .text.bsp_qspi_erase_command_get
                0x00000000        0xc ./synergy/board/s5d9_pk/bsp_qspi.o
 .data.w25q64fv_flash_erase_sizes
                0x00000000       0x10 ./synergy/board/s5d9_pk/bsp_qspi.o
 .rodata.w25q64fv_erase_commands
                0x00000000        0x4 ./synergy/board/s5d9_pk/bsp_qspi.o
 .text          0x00000000        0x0 ./src/synergy_gen/common_data.o
 .data          0x00000000        0x0 ./src/synergy_gen/common_data.o
 .bss           0x00000000        0x0 ./src/synergy_gen/common_data.o
 .rodata.g_cgc  0x00000000        0x8 ./src/synergy_gen/common_data.o
 .rodata.g_elc  0x00000000        0x8 ./src/synergy_gen/common_data.o
 .rodata.g_fmi  0x00000000        0x4 ./src/synergy_gen/common_data.o
 .text          0x00000000        0x0 ./src/synergy_gen/hal_data.o
 .data          0x00000000        0x0 ./src/synergy_gen/hal_data.o
 .bss           0x00000000        0x0 ./src/synergy_gen/hal_data.o
 .text          0x00000000        0x0 ./src/synergy_gen/main.o
 .data          0x00000000        0x0 ./src/synergy_gen/main.o
 .bss           0x00000000        0x0 ./src/synergy_gen/main.o
 .text          0x00000000        0x0 ./src/synergy_gen/pin_data.o
 .data          0x00000000        0x0 ./src/synergy_gen/pin_data.o
 .bss           0x00000000        0x0 ./src/synergy_gen/pin_data.o
 .text          0x00000000        0x0 ./src/synergy_gen/thread0.o
 .data          0x00000000        0x0 ./src/synergy_gen/thread0.o
 .bss           0x00000000        0x0 ./src/synergy_gen/thread0.o
 .bss.g_timer0_ctrl
                0x00000000       0x18 ./src/synergy_gen/thread0.o
 .data.g_transfer0_info
                0x00000000       0x10 ./src/synergy_gen/thread0.o
 .rodata.g_timer0
                0x00000000        0xc ./src/synergy_gen/thread0.o
 .rodata.g_timer0_cfg
                0x00000000       0x20 ./src/synergy_gen/thread0.o
 .rodata.g_timer0_extend
                0x00000000        0x5 ./src/synergy_gen/thread0.o
 .rodata.g_transfer0
                0x00000000        0xc ./src/synergy_gen/thread0.o
 .rodata.g_transfer0_cfg
                0x00000000       0x14 ./src/synergy_gen/thread0.o
 .rodata.g_uart0
                0x00000000        0xc ./src/synergy_gen/thread0.o
 .rodata.g_uart0_cfg
                0x00000000       0x24 ./src/synergy_gen/thread0.o
 .rodata.g_uart0_cfg_extend
                0x00000000       0x18 ./src/synergy_gen/thread0.o
 .text          0x00000000        0x0 ./src/hal_entry.o
 .data          0x00000000        0x0 ./src/hal_entry.o
 .bss           0x00000000        0x0 ./src/hal_entry.o
 .text.hal_entry
                0x00000000        0x4 ./src/hal_entry.o
 .debug_info    0x00000000     0x2bdd ./src/hal_entry.o
 .debug_abbrev  0x00000000      0x211 ./src/hal_entry.o
 .debug_aranges
                0x00000000       0x20 ./src/hal_entry.o
 .debug_ranges  0x00000000       0x10 ./src/hal_entry.o
 .debug_line    0x00000000      0x3b4 ./src/hal_entry.o
 .debug_str     0x00000000     0x6bf0 ./src/hal_entry.o
 .comment       0x00000000       0x7f ./src/hal_entry.o
 .debug_frame   0x00000000       0x20 ./src/hal_entry.o
 .ARM.attributes
                0x00000000       0x39 ./src/hal_entry.o
 .text          0x00000000        0x0 ./src/thread0_entry.o
 .data          0x00000000        0x0 ./src/thread0_entry.o
 .bss           0x00000000        0x0 ./src/thread0_entry.o
 .text          0x00000000        0x0 C:\Users\kirti\PK_S5D9\verify\synergy\ssp\src\framework\el\tx\cm4_gcc\libtx.a(txe_queue_create.o)
 .data          0x00000000        0x0 C:\Users\kirti\PK_S5D9\verify\synergy\ssp\src\framework\el\tx\cm4_gcc\libtx.a(txe_queue_create.o)
 .bss           0x00000000        0x0 C:\Users\kirti\PK_S5D9\verify\synergy\ssp\src\framework\el\tx\cm4_gcc\libtx.a(txe_queue_create.o)
 .text          0x00000000        0x0 C:\Users\kirti\PK_S5D9\verify\synergy\ssp\src\framework\el\tx\cm4_gcc\libtx.a(txe_semaphore_create.o)
 .data          0x00000000        0x0 C:\Users\kirti\PK_S5D9\verify\synergy\ssp\src\framework\el\tx\cm4_gcc\libtx.a(txe_semaphore_create.o)
 .bss           0x00000000        0x0 C:\Users\kirti\PK_S5D9\verify\synergy\ssp\src\framework\el\tx\cm4_gcc\libtx.a(txe_semaphore_create.o)
 .text          0x00000000        0x0 C:\Users\kirti\PK_S5D9\verify\synergy\ssp\src\framework\el\tx\cm4_gcc\libtx.a(txe_semaphore_get.o)
 .data          0x00000000        0x0 C:\Users\kirti\PK_S5D9\verify\synergy\ssp\src\framework\el\tx\cm4_gcc\libtx.a(txe_semaphore_get.o)
 .bss           0x00000000        0x0 C:\Users\kirti\PK_S5D9\verify\synergy\ssp\src\framework\el\tx\cm4_gcc\libtx.a(txe_semaphore_get.o)
 .text          0x00000000        0x0 C:\Users\kirti\PK_S5D9\verify\synergy\ssp\src\framework\el\tx\cm4_gcc\libtx.a(txe_semaphore_put.o)
 .data          0x00000000        0x0 C:\Users\kirti\PK_S5D9\verify\synergy\ssp\src\framework\el\tx\cm4_gcc\libtx.a(txe_semaphore_put.o)
 .bss           0x00000000        0x0 C:\Users\kirti\PK_S5D9\verify\synergy\ssp\src\framework\el\tx\cm4_gcc\libtx.a(txe_semaphore_put.o)
 .text          0x00000000        0x0 C:\Users\kirti\PK_S5D9\verify\synergy\ssp\src\framework\el\tx\cm4_gcc\libtx.a(txe_thread_create.o)
 .data          0x00000000        0x0 C:\Users\kirti\PK_S5D9\verify\synergy\ssp\src\framework\el\tx\cm4_gcc\libtx.a(txe_thread_create.o)
 .bss           0x00000000        0x0 C:\Users\kirti\PK_S5D9\verify\synergy\ssp\src\framework\el\tx\cm4_gcc\libtx.a(txe_thread_create.o)
 .text          0x00000000        0x0 C:\Users\kirti\PK_S5D9\verify\synergy\ssp\src\framework\el\tx\cm4_gcc\libtx.a(tx_initialize_high_level.o)
 .data          0x00000000        0x0 C:\Users\kirti\PK_S5D9\verify\synergy\ssp\src\framework\el\tx\cm4_gcc\libtx.a(tx_initialize_high_level.o)
 .bss           0x00000000        0x0 C:\Users\kirti\PK_S5D9\verify\synergy\ssp\src\framework\el\tx\cm4_gcc\libtx.a(tx_initialize_high_level.o)
 .text          0x00000000        0x0 C:\Users\kirti\PK_S5D9\verify\synergy\ssp\src\framework\el\tx\cm4_gcc\libtx.a(tx_initialize_kernel_enter.o)
 .data          0x00000000        0x0 C:\Users\kirti\PK_S5D9\verify\synergy\ssp\src\framework\el\tx\cm4_gcc\libtx.a(tx_initialize_kernel_enter.o)
 .bss           0x00000000        0x0 C:\Users\kirti\PK_S5D9\verify\synergy\ssp\src\framework\el\tx\cm4_gcc\libtx.a(tx_initialize_kernel_enter.o)
 .text          0x00000000        0x0 C:\Users\kirti\PK_S5D9\verify\synergy\ssp\src\framework\el\tx\cm4_gcc\libtx.a(tx_isr_end.o)
 .data          0x00000000        0x0 C:\Users\kirti\PK_S5D9\verify\synergy\ssp\src\framework\el\tx\cm4_gcc\libtx.a(tx_isr_end.o)
 .bss           0x00000000        0x0 C:\Users\kirti\PK_S5D9\verify\synergy\ssp\src\framework\el\tx\cm4_gcc\libtx.a(tx_isr_end.o)
 .text          0x00000000        0x0 C:\Users\kirti\PK_S5D9\verify\synergy\ssp\src\framework\el\tx\cm4_gcc\libtx.a(tx_isr_start.o)
 .data          0x00000000        0x0 C:\Users\kirti\PK_S5D9\verify\synergy\ssp\src\framework\el\tx\cm4_gcc\libtx.a(tx_isr_start.o)
 .bss           0x00000000        0x0 C:\Users\kirti\PK_S5D9\verify\synergy\ssp\src\framework\el\tx\cm4_gcc\libtx.a(tx_isr_start.o)
 .text          0x00000000        0x0 C:\Users\kirti\PK_S5D9\verify\synergy\ssp\src\framework\el\tx\cm4_gcc\libtx.a(tx_queue_create.o)
 .data          0x00000000        0x0 C:\Users\kirti\PK_S5D9\verify\synergy\ssp\src\framework\el\tx\cm4_gcc\libtx.a(tx_queue_create.o)
 .bss           0x00000000        0x0 C:\Users\kirti\PK_S5D9\verify\synergy\ssp\src\framework\el\tx\cm4_gcc\libtx.a(tx_queue_create.o)
 .text          0x00000000        0x0 C:\Users\kirti\PK_S5D9\verify\synergy\ssp\src\framework\el\tx\cm4_gcc\libtx.a(tx_semaphore_create.o)
 .data          0x00000000        0x0 C:\Users\kirti\PK_S5D9\verify\synergy\ssp\src\framework\el\tx\cm4_gcc\libtx.a(tx_semaphore_create.o)
 .bss           0x00000000        0x0 C:\Users\kirti\PK_S5D9\verify\synergy\ssp\src\framework\el\tx\cm4_gcc\libtx.a(tx_semaphore_create.o)
 .text          0x00000000        0x0 C:\Users\kirti\PK_S5D9\verify\synergy\ssp\src\framework\el\tx\cm4_gcc\libtx.a(tx_semaphore_get.o)
 .data          0x00000000        0x0 C:\Users\kirti\PK_S5D9\verify\synergy\ssp\src\framework\el\tx\cm4_gcc\libtx.a(tx_semaphore_get.o)
 .bss           0x00000000        0x0 C:\Users\kirti\PK_S5D9\verify\synergy\ssp\src\framework\el\tx\cm4_gcc\libtx.a(tx_semaphore_get.o)
 .text          0x00000000        0x0 C:\Users\kirti\PK_S5D9\verify\synergy\ssp\src\framework\el\tx\cm4_gcc\libtx.a(tx_semaphore_put.o)
 .data          0x00000000        0x0 C:\Users\kirti\PK_S5D9\verify\synergy\ssp\src\framework\el\tx\cm4_gcc\libtx.a(tx_semaphore_put.o)
 .bss           0x00000000        0x0 C:\Users\kirti\PK_S5D9\verify\synergy\ssp\src\framework\el\tx\cm4_gcc\libtx.a(tx_semaphore_put.o)
 .text          0x00000000        0x0 C:\Users\kirti\PK_S5D9\verify\synergy\ssp\src\framework\el\tx\cm4_gcc\libtx.a(tx_thread_create.o)
 .data          0x00000000        0x0 C:\Users\kirti\PK_S5D9\verify\synergy\ssp\src\framework\el\tx\cm4_gcc\libtx.a(tx_thread_create.o)
 .bss           0x00000000        0x0 C:\Users\kirti\PK_S5D9\verify\synergy\ssp\src\framework\el\tx\cm4_gcc\libtx.a(tx_thread_create.o)
 .text          0x00000000        0x0 C:\Users\kirti\PK_S5D9\verify\synergy\ssp\src\framework\el\tx\cm4_gcc\libtx.a(tx_thread_initialize.o)
 .data          0x00000000        0x0 C:\Users\kirti\PK_S5D9\verify\synergy\ssp\src\framework\el\tx\cm4_gcc\libtx.a(tx_thread_initialize.o)
 .bss           0x00000000        0x0 C:\Users\kirti\PK_S5D9\verify\synergy\ssp\src\framework\el\tx\cm4_gcc\libtx.a(tx_thread_initialize.o)
 .data._tx_version_id
                0x00000000       0x62 C:\Users\kirti\PK_S5D9\verify\synergy\ssp\src\framework\el\tx\cm4_gcc\libtx.a(tx_thread_initialize.o)
 .rodata._tx_thread_special_string
                0x00000000       0x57 C:\Users\kirti\PK_S5D9\verify\synergy\ssp\src\framework\el\tx\cm4_gcc\libtx.a(tx_thread_initialize.o)
 .text          0x00000000        0x0 C:\Users\kirti\PK_S5D9\verify\synergy\ssp\src\framework\el\tx\cm4_gcc\libtx.a(tx_thread_shell_entry.o)
 .data          0x00000000        0x0 C:\Users\kirti\PK_S5D9\verify\synergy\ssp\src\framework\el\tx\cm4_gcc\libtx.a(tx_thread_shell_entry.o)
 .bss           0x00000000        0x0 C:\Users\kirti\PK_S5D9\verify\synergy\ssp\src\framework\el\tx\cm4_gcc\libtx.a(tx_thread_shell_entry.o)
 .text          0x00000000        0x0 C:\Users\kirti\PK_S5D9\verify\synergy\ssp\src\framework\el\tx\cm4_gcc\libtx.a(tx_thread_sleep.o)
 .data          0x00000000        0x0 C:\Users\kirti\PK_S5D9\verify\synergy\ssp\src\framework\el\tx\cm4_gcc\libtx.a(tx_thread_sleep.o)
 .bss           0x00000000        0x0 C:\Users\kirti\PK_S5D9\verify\synergy\ssp\src\framework\el\tx\cm4_gcc\libtx.a(tx_thread_sleep.o)
 .text          0x00000000        0x0 C:\Users\kirti\PK_S5D9\verify\synergy\ssp\src\framework\el\tx\cm4_gcc\libtx.a(tx_thread_system_preempt_check.o)
 .data          0x00000000        0x0 C:\Users\kirti\PK_S5D9\verify\synergy\ssp\src\framework\el\tx\cm4_gcc\libtx.a(tx_thread_system_preempt_check.o)
 .bss           0x00000000        0x0 C:\Users\kirti\PK_S5D9\verify\synergy\ssp\src\framework\el\tx\cm4_gcc\libtx.a(tx_thread_system_preempt_check.o)
 .text          0x00000000        0x0 C:\Users\kirti\PK_S5D9\verify\synergy\ssp\src\framework\el\tx\cm4_gcc\libtx.a(tx_thread_system_resume.o)
 .data          0x00000000        0x0 C:\Users\kirti\PK_S5D9\verify\synergy\ssp\src\framework\el\tx\cm4_gcc\libtx.a(tx_thread_system_resume.o)
 .bss           0x00000000        0x0 C:\Users\kirti\PK_S5D9\verify\synergy\ssp\src\framework\el\tx\cm4_gcc\libtx.a(tx_thread_system_resume.o)
 .text          0x00000000        0x0 C:\Users\kirti\PK_S5D9\verify\synergy\ssp\src\framework\el\tx\cm4_gcc\libtx.a(tx_thread_system_suspend.o)
 .data          0x00000000        0x0 C:\Users\kirti\PK_S5D9\verify\synergy\ssp\src\framework\el\tx\cm4_gcc\libtx.a(tx_thread_system_suspend.o)
 .bss           0x00000000        0x0 C:\Users\kirti\PK_S5D9\verify\synergy\ssp\src\framework\el\tx\cm4_gcc\libtx.a(tx_thread_system_suspend.o)
 .text          0x00000000        0x0 C:\Users\kirti\PK_S5D9\verify\synergy\ssp\src\framework\el\tx\cm4_gcc\libtx.a(tx_thread_timeout.o)
 .data          0x00000000        0x0 C:\Users\kirti\PK_S5D9\verify\synergy\ssp\src\framework\el\tx\cm4_gcc\libtx.a(tx_thread_timeout.o)
 .bss           0x00000000        0x0 C:\Users\kirti\PK_S5D9\verify\synergy\ssp\src\framework\el\tx\cm4_gcc\libtx.a(tx_thread_timeout.o)
 .text          0x00000000        0x0 C:\Users\kirti\PK_S5D9\verify\synergy\ssp\src\framework\el\tx\cm4_gcc\libtx.a(tx_timer_initialize.o)
 .data          0x00000000        0x0 C:\Users\kirti\PK_S5D9\verify\synergy\ssp\src\framework\el\tx\cm4_gcc\libtx.a(tx_timer_initialize.o)
 .bss           0x00000000        0x0 C:\Users\kirti\PK_S5D9\verify\synergy\ssp\src\framework\el\tx\cm4_gcc\libtx.a(tx_timer_initialize.o)
 .text          0x00000000        0x0 C:\Users\kirti\PK_S5D9\verify\synergy\ssp\src\framework\el\tx\cm4_gcc\libtx.a(tx_timer_system_activate.o)
 .data          0x00000000        0x0 C:\Users\kirti\PK_S5D9\verify\synergy\ssp\src\framework\el\tx\cm4_gcc\libtx.a(tx_timer_system_activate.o)
 .bss           0x00000000        0x0 C:\Users\kirti\PK_S5D9\verify\synergy\ssp\src\framework\el\tx\cm4_gcc\libtx.a(tx_timer_system_activate.o)
 .text          0x00000000        0x0 C:\Users\kirti\PK_S5D9\verify\synergy\ssp\src\framework\el\tx\cm4_gcc\libtx.a(tx_timer_system_deactivate.o)
 .data          0x00000000        0x0 C:\Users\kirti\PK_S5D9\verify\synergy\ssp\src\framework\el\tx\cm4_gcc\libtx.a(tx_timer_system_deactivate.o)
 .bss           0x00000000        0x0 C:\Users\kirti\PK_S5D9\verify\synergy\ssp\src\framework\el\tx\cm4_gcc\libtx.a(tx_timer_system_deactivate.o)
 .text          0x00000000        0x0 C:\Users\kirti\PK_S5D9\verify\synergy\ssp\src\framework\el\tx\cm4_gcc\libtx.a(tx_initialize_low_level.o)
 .data          0x00000000        0x0 C:\Users\kirti\PK_S5D9\verify\synergy\ssp\src\framework\el\tx\cm4_gcc\libtx.a(tx_initialize_low_level.o)
 .bss           0x00000000        0x0 C:\Users\kirti\PK_S5D9\verify\synergy\ssp\src\framework\el\tx\cm4_gcc\libtx.a(tx_initialize_low_level.o)
 .text          0x00000000        0x0 C:\Users\kirti\PK_S5D9\verify\synergy\ssp\src\framework\el\tx\cm4_gcc\libtx.a(tx_thread_schedule.o)
 .data          0x00000000        0x0 C:\Users\kirti\PK_S5D9\verify\synergy\ssp\src\framework\el\tx\cm4_gcc\libtx.a(tx_thread_schedule.o)
 .bss           0x00000000        0x0 C:\Users\kirti\PK_S5D9\verify\synergy\ssp\src\framework\el\tx\cm4_gcc\libtx.a(tx_thread_schedule.o)
 .text          0x00000000        0x0 C:\Users\kirti\PK_S5D9\verify\synergy\ssp\src\framework\el\tx\cm4_gcc\libtx.a(tx_thread_stack_build.o)
 .data          0x00000000        0x0 C:\Users\kirti\PK_S5D9\verify\synergy\ssp\src\framework\el\tx\cm4_gcc\libtx.a(tx_thread_stack_build.o)
 .bss           0x00000000        0x0 C:\Users\kirti\PK_S5D9\verify\synergy\ssp\src\framework\el\tx\cm4_gcc\libtx.a(tx_thread_stack_build.o)
 .text          0x00000000        0x0 C:\Users\kirti\PK_S5D9\verify\synergy\ssp\src\framework\el\tx\cm4_gcc\libtx.a(tx_timer_interrupt.o)
 .data          0x00000000        0x0 C:\Users\kirti\PK_S5D9\verify\synergy\ssp\src\framework\el\tx\cm4_gcc\libtx.a(tx_timer_interrupt.o)
 .bss           0x00000000        0x0 C:\Users\kirti\PK_S5D9\verify\synergy\ssp\src\framework\el\tx\cm4_gcc\libtx.a(tx_timer_interrupt.o)
 .text          0x00000000        0x0 C:\Users\kirti\PK_S5D9\verify\synergy\ssp\src\framework\el\tx\cm4_gcc\libtx.a(tx_semaphore_cleanup.o)
 .data          0x00000000        0x0 C:\Users\kirti\PK_S5D9\verify\synergy\ssp\src\framework\el\tx\cm4_gcc\libtx.a(tx_semaphore_cleanup.o)
 .bss           0x00000000        0x0 C:\Users\kirti\PK_S5D9\verify\synergy\ssp\src\framework\el\tx\cm4_gcc\libtx.a(tx_semaphore_cleanup.o)
 .text          0x00000000        0x0 C:\Users\kirti\PK_S5D9\verify\synergy\ssp\src\framework\el\tx\cm4_gcc\libtx.a(tx_thread_time_slice.o)
 .data          0x00000000        0x0 C:\Users\kirti\PK_S5D9\verify\synergy\ssp\src\framework\el\tx\cm4_gcc\libtx.a(tx_thread_time_slice.o)
 .bss           0x00000000        0x0 C:\Users\kirti\PK_S5D9\verify\synergy\ssp\src\framework\el\tx\cm4_gcc\libtx.a(tx_thread_time_slice.o)
 .text          0x00000000        0x0 C:\Users\kirti\PK_S5D9\verify\synergy\ssp\src\framework\el\tx\cm4_gcc\libtx.a(tx_timer_expiration_process.o)
 .data          0x00000000        0x0 C:\Users\kirti\PK_S5D9\verify\synergy\ssp\src\framework\el\tx\cm4_gcc\libtx.a(tx_timer_expiration_process.o)
 .bss           0x00000000        0x0 C:\Users\kirti\PK_S5D9\verify\synergy\ssp\src\framework\el\tx\cm4_gcc\libtx.a(tx_timer_expiration_process.o)
 .text          0x00000000       0xa0 c:/renesas/synergy/e2studio_v7.5.1_ssp_v1.7.5/toolchains/gcc_arm/7.2.1_2017q4/bin/../lib/gcc/arm-none-eabi/7.2.1/thumb/v7e-m/fpv4-sp/hard\libgcc.a(_aeabi_ldivmod.o)
 .data          0x00000000        0x0 c:/renesas/synergy/e2studio_v7.5.1_ssp_v1.7.5/toolchains/gcc_arm/7.2.1_2017q4/bin/../lib/gcc/arm-none-eabi/7.2.1/thumb/v7e-m/fpv4-sp/hard\libgcc.a(_aeabi_ldivmod.o)
 .bss           0x00000000        0x0 c:/renesas/synergy/e2studio_v7.5.1_ssp_v1.7.5/toolchains/gcc_arm/7.2.1_2017q4/bin/../lib/gcc/arm-none-eabi/7.2.1/thumb/v7e-m/fpv4-sp/hard\libgcc.a(_aeabi_ldivmod.o)
 .debug_frame   0x00000000       0x44 c:/renesas/synergy/e2studio_v7.5.1_ssp_v1.7.5/toolchains/gcc_arm/7.2.1_2017q4/bin/../lib/gcc/arm-none-eabi/7.2.1/thumb/v7e-m/fpv4-sp/hard\libgcc.a(_aeabi_ldivmod.o)
 .ARM.attributes
                0x00000000       0x22 c:/renesas/synergy/e2studio_v7.5.1_ssp_v1.7.5/toolchains/gcc_arm/7.2.1_2017q4/bin/../lib/gcc/arm-none-eabi/7.2.1/thumb/v7e-m/fpv4-sp/hard\libgcc.a(_aeabi_ldivmod.o)
 .text          0x00000000       0x30 c:/renesas/synergy/e2studio_v7.5.1_ssp_v1.7.5/toolchains/gcc_arm/7.2.1_2017q4/bin/../lib/gcc/arm-none-eabi/7.2.1/thumb/v7e-m/fpv4-sp/hard\libgcc.a(_aeabi_uldivmod.o)
 .data          0x00000000        0x0 c:/renesas/synergy/e2studio_v7.5.1_ssp_v1.7.5/toolchains/gcc_arm/7.2.1_2017q4/bin/../lib/gcc/arm-none-eabi/7.2.1/thumb/v7e-m/fpv4-sp/hard\libgcc.a(_aeabi_uldivmod.o)
 .bss           0x00000000        0x0 c:/renesas/synergy/e2studio_v7.5.1_ssp_v1.7.5/toolchains/gcc_arm/7.2.1_2017q4/bin/../lib/gcc/arm-none-eabi/7.2.1/thumb/v7e-m/fpv4-sp/hard\libgcc.a(_aeabi_uldivmod.o)
 .debug_frame   0x00000000       0x2c c:/renesas/synergy/e2studio_v7.5.1_ssp_v1.7.5/toolchains/gcc_arm/7.2.1_2017q4/bin/../lib/gcc/arm-none-eabi/7.2.1/thumb/v7e-m/fpv4-sp/hard\libgcc.a(_aeabi_uldivmod.o)
 .ARM.attributes
                0x00000000       0x22 c:/renesas/synergy/e2studio_v7.5.1_ssp_v1.7.5/toolchains/gcc_arm/7.2.1_2017q4/bin/../lib/gcc/arm-none-eabi/7.2.1/thumb/v7e-m/fpv4-sp/hard\libgcc.a(_aeabi_uldivmod.o)
 .text          0x00000000      0x2cc c:/renesas/synergy/e2studio_v7.5.1_ssp_v1.7.5/toolchains/gcc_arm/7.2.1_2017q4/bin/../lib/gcc/arm-none-eabi/7.2.1/thumb/v7e-m/fpv4-sp/hard\libgcc.a(_udivmoddi4.o)
 .data          0x00000000        0x0 c:/renesas/synergy/e2studio_v7.5.1_ssp_v1.7.5/toolchains/gcc_arm/7.2.1_2017q4/bin/../lib/gcc/arm-none-eabi/7.2.1/thumb/v7e-m/fpv4-sp/hard\libgcc.a(_udivmoddi4.o)
 .bss           0x00000000        0x0 c:/renesas/synergy/e2studio_v7.5.1_ssp_v1.7.5/toolchains/gcc_arm/7.2.1_2017q4/bin/../lib/gcc/arm-none-eabi/7.2.1/thumb/v7e-m/fpv4-sp/hard\libgcc.a(_udivmoddi4.o)
 .ARM.extab     0x00000000        0x0 c:/renesas/synergy/e2studio_v7.5.1_ssp_v1.7.5/toolchains/gcc_arm/7.2.1_2017q4/bin/../lib/gcc/arm-none-eabi/7.2.1/thumb/v7e-m/fpv4-sp/hard\libgcc.a(_udivmoddi4.o)
 .ARM.exidx     0x00000000        0x8 c:/renesas/synergy/e2studio_v7.5.1_ssp_v1.7.5/toolchains/gcc_arm/7.2.1_2017q4/bin/../lib/gcc/arm-none-eabi/7.2.1/thumb/v7e-m/fpv4-sp/hard\libgcc.a(_udivmoddi4.o)
 .debug_frame   0x00000000       0x34 c:/renesas/synergy/e2studio_v7.5.1_ssp_v1.7.5/toolchains/gcc_arm/7.2.1_2017q4/bin/../lib/gcc/arm-none-eabi/7.2.1/thumb/v7e-m/fpv4-sp/hard\libgcc.a(_udivmoddi4.o)
 .ARM.attributes
                0x00000000       0x34 c:/renesas/synergy/e2studio_v7.5.1_ssp_v1.7.5/toolchains/gcc_arm/7.2.1_2017q4/bin/../lib/gcc/arm-none-eabi/7.2.1/thumb/v7e-m/fpv4-sp/hard\libgcc.a(_udivmoddi4.o)
 .text          0x00000000        0x4 c:/renesas/synergy/e2studio_v7.5.1_ssp_v1.7.5/toolchains/gcc_arm/7.2.1_2017q4/bin/../lib/gcc/arm-none-eabi/7.2.1/thumb/v7e-m/fpv4-sp/hard\libgcc.a(_dvmd_tls.o)
 .data          0x00000000        0x0 c:/renesas/synergy/e2studio_v7.5.1_ssp_v1.7.5/toolchains/gcc_arm/7.2.1_2017q4/bin/../lib/gcc/arm-none-eabi/7.2.1/thumb/v7e-m/fpv4-sp/hard\libgcc.a(_dvmd_tls.o)
 .bss           0x00000000        0x0 c:/renesas/synergy/e2studio_v7.5.1_ssp_v1.7.5/toolchains/gcc_arm/7.2.1_2017q4/bin/../lib/gcc/arm-none-eabi/7.2.1/thumb/v7e-m/fpv4-sp/hard\libgcc.a(_dvmd_tls.o)
 .ARM.attributes
                0x00000000       0x22 c:/renesas/synergy/e2studio_v7.5.1_ssp_v1.7.5/toolchains/gcc_arm/7.2.1_2017q4/bin/../lib/gcc/arm-none-eabi/7.2.1/thumb/v7e-m/fpv4-sp/hard\libgcc.a(_dvmd_tls.o)
 .text          0x00000000        0x0 c:/renesas/synergy/e2studio_v7.5.1_ssp_v1.7.5/toolchains/gcc_arm/7.2.1_2017q4/bin/../lib/gcc/arm-none-eabi/7.2.1/../../../../arm-none-eabi/lib/thumb/v7e-m/fpv4-sp/hard\libg_nano.a(lib_a-errno.o)
 .data          0x00000000        0x0 c:/renesas/synergy/e2studio_v7.5.1_ssp_v1.7.5/toolchains/gcc_arm/7.2.1_2017q4/bin/../lib/gcc/arm-none-eabi/7.2.1/../../../../arm-none-eabi/lib/thumb/v7e-m/fpv4-sp/hard\libg_nano.a(lib_a-errno.o)
 .bss           0x00000000        0x0 c:/renesas/synergy/e2studio_v7.5.1_ssp_v1.7.5/toolchains/gcc_arm/7.2.1_2017q4/bin/../lib/gcc/arm-none-eabi/7.2.1/../../../../arm-none-eabi/lib/thumb/v7e-m/fpv4-sp/hard\libg_nano.a(lib_a-errno.o)
 .text          0x00000000        0x0 c:/renesas/synergy/e2studio_v7.5.1_ssp_v1.7.5/toolchains/gcc_arm/7.2.1_2017q4/bin/../lib/gcc/arm-none-eabi/7.2.1/../../../../arm-none-eabi/lib/thumb/v7e-m/fpv4-sp/hard\libg_nano.a(lib_a-exit.o)
 .data          0x00000000        0x0 c:/renesas/synergy/e2studio_v7.5.1_ssp_v1.7.5/toolchains/gcc_arm/7.2.1_2017q4/bin/../lib/gcc/arm-none-eabi/7.2.1/../../../../arm-none-eabi/lib/thumb/v7e-m/fpv4-sp/hard\libg_nano.a(lib_a-exit.o)
 .bss           0x00000000        0x0 c:/renesas/synergy/e2studio_v7.5.1_ssp_v1.7.5/toolchains/gcc_arm/7.2.1_2017q4/bin/../lib/gcc/arm-none-eabi/7.2.1/../../../../arm-none-eabi/lib/thumb/v7e-m/fpv4-sp/hard\libg_nano.a(lib_a-exit.o)
 .text.exit     0x00000000       0x28 c:/renesas/synergy/e2studio_v7.5.1_ssp_v1.7.5/toolchains/gcc_arm/7.2.1_2017q4/bin/../lib/gcc/arm-none-eabi/7.2.1/../../../../arm-none-eabi/lib/thumb/v7e-m/fpv4-sp/hard\libg_nano.a(lib_a-exit.o)
 .debug_frame   0x00000000       0x28 c:/renesas/synergy/e2studio_v7.5.1_ssp_v1.7.5/toolchains/gcc_arm/7.2.1_2017q4/bin/../lib/gcc/arm-none-eabi/7.2.1/../../../../arm-none-eabi/lib/thumb/v7e-m/fpv4-sp/hard\libg_nano.a(lib_a-exit.o)
 .ARM.attributes
                0x00000000       0x34 c:/renesas/synergy/e2studio_v7.5.1_ssp_v1.7.5/toolchains/gcc_arm/7.2.1_2017q4/bin/../lib/gcc/arm-none-eabi/7.2.1/../../../../arm-none-eabi/lib/thumb/v7e-m/fpv4-sp/hard\libg_nano.a(lib_a-exit.o)
 .text          0x00000000        0x0 c:/renesas/synergy/e2studio_v7.5.1_ssp_v1.7.5/toolchains/gcc_arm/7.2.1_2017q4/bin/../lib/gcc/arm-none-eabi/7.2.1/../../../../arm-none-eabi/lib/thumb/v7e-m/fpv4-sp/hard\libg_nano.a(lib_a-impure.o)
 .data          0x00000000        0x0 c:/renesas/synergy/e2studio_v7.5.1_ssp_v1.7.5/toolchains/gcc_arm/7.2.1_2017q4/bin/../lib/gcc/arm-none-eabi/7.2.1/../../../../arm-none-eabi/lib/thumb/v7e-m/fpv4-sp/hard\libg_nano.a(lib_a-impure.o)
 .bss           0x00000000        0x0 c:/renesas/synergy/e2studio_v7.5.1_ssp_v1.7.5/toolchains/gcc_arm/7.2.1_2017q4/bin/../lib/gcc/arm-none-eabi/7.2.1/../../../../arm-none-eabi/lib/thumb/v7e-m/fpv4-sp/hard\libg_nano.a(lib_a-impure.o)
 .text          0x00000000        0x0 c:/renesas/synergy/e2studio_v7.5.1_ssp_v1.7.5/toolchains/gcc_arm/7.2.1_2017q4/bin/../lib/gcc/arm-none-eabi/7.2.1/../../../../arm-none-eabi/lib/thumb/v7e-m/fpv4-sp/hard\libg_nano.a(lib_a-init.o)
 .data          0x00000000        0x0 c:/renesas/synergy/e2studio_v7.5.1_ssp_v1.7.5/toolchains/gcc_arm/7.2.1_2017q4/bin/../lib/gcc/arm-none-eabi/7.2.1/../../../../arm-none-eabi/lib/thumb/v7e-m/fpv4-sp/hard\libg_nano.a(lib_a-init.o)
 .bss           0x00000000        0x0 c:/renesas/synergy/e2studio_v7.5.1_ssp_v1.7.5/toolchains/gcc_arm/7.2.1_2017q4/bin/../lib/gcc/arm-none-eabi/7.2.1/../../../../arm-none-eabi/lib/thumb/v7e-m/fpv4-sp/hard\libg_nano.a(lib_a-init.o)
 .text.__libc_init_array
                0x00000000       0x48 c:/renesas/synergy/e2studio_v7.5.1_ssp_v1.7.5/toolchains/gcc_arm/7.2.1_2017q4/bin/../lib/gcc/arm-none-eabi/7.2.1/../../../../arm-none-eabi/lib/thumb/v7e-m/fpv4-sp/hard\libg_nano.a(lib_a-init.o)
 .debug_frame   0x00000000       0x2c c:/renesas/synergy/e2studio_v7.5.1_ssp_v1.7.5/toolchains/gcc_arm/7.2.1_2017q4/bin/../lib/gcc/arm-none-eabi/7.2.1/../../../../arm-none-eabi/lib/thumb/v7e-m/fpv4-sp/hard\libg_nano.a(lib_a-init.o)
 .ARM.attributes
                0x00000000       0x34 c:/renesas/synergy/e2studio_v7.5.1_ssp_v1.7.5/toolchains/gcc_arm/7.2.1_2017q4/bin/../lib/gcc/arm-none-eabi/7.2.1/../../../../arm-none-eabi/lib/thumb/v7e-m/fpv4-sp/hard\libg_nano.a(lib_a-init.o)
 .text          0x00000000        0x0 c:/renesas/synergy/e2studio_v7.5.1_ssp_v1.7.5/toolchains/gcc_arm/7.2.1_2017q4/bin/../lib/gcc/arm-none-eabi/7.2.1/../../../../arm-none-eabi/lib/thumb/v7e-m/fpv4-sp/hard\libg_nano.a(lib_a-memcmp.o)
 .data          0x00000000        0x0 c:/renesas/synergy/e2studio_v7.5.1_ssp_v1.7.5/toolchains/gcc_arm/7.2.1_2017q4/bin/../lib/gcc/arm-none-eabi/7.2.1/../../../../arm-none-eabi/lib/thumb/v7e-m/fpv4-sp/hard\libg_nano.a(lib_a-memcmp.o)
 .bss           0x00000000        0x0 c:/renesas/synergy/e2studio_v7.5.1_ssp_v1.7.5/toolchains/gcc_arm/7.2.1_2017q4/bin/../lib/gcc/arm-none-eabi/7.2.1/../../../../arm-none-eabi/lib/thumb/v7e-m/fpv4-sp/hard\libg_nano.a(lib_a-memcmp.o)
 .text          0x00000000        0x0 c:/renesas/synergy/e2studio_v7.5.1_ssp_v1.7.5/toolchains/gcc_arm/7.2.1_2017q4/bin/../lib/gcc/arm-none-eabi/7.2.1/../../../../arm-none-eabi/lib/thumb/v7e-m/fpv4-sp/hard\libg_nano.a(lib_a-memset.o)
 .data          0x00000000        0x0 c:/renesas/synergy/e2studio_v7.5.1_ssp_v1.7.5/toolchains/gcc_arm/7.2.1_2017q4/bin/../lib/gcc/arm-none-eabi/7.2.1/../../../../arm-none-eabi/lib/thumb/v7e-m/fpv4-sp/hard\libg_nano.a(lib_a-memset.o)
 .bss           0x00000000        0x0 c:/renesas/synergy/e2studio_v7.5.1_ssp_v1.7.5/toolchains/gcc_arm/7.2.1_2017q4/bin/../lib/gcc/arm-none-eabi/7.2.1/../../../../arm-none-eabi/lib/thumb/v7e-m/fpv4-sp/hard\libg_nano.a(lib_a-memset.o)
 .text          0x00000000        0x0 c:/renesas/synergy/e2studio_v7.5.1_ssp_v1.7.5/toolchains/gcc_arm/7.2.1_2017q4/bin/../lib/gcc/arm-none-eabi/7.2.1/../../../../arm-none-eabi/lib/thumb/v7e-m/fpv4-sp/hard\libg_nano.a(lib_a-printf.o)
 .data          0x00000000        0x0 c:/renesas/synergy/e2studio_v7.5.1_ssp_v1.7.5/toolchains/gcc_arm/7.2.1_2017q4/bin/../lib/gcc/arm-none-eabi/7.2.1/../../../../arm-none-eabi/lib/thumb/v7e-m/fpv4-sp/hard\libg_nano.a(lib_a-printf.o)
 .bss           0x00000000        0x0 c:/renesas/synergy/e2studio_v7.5.1_ssp_v1.7.5/toolchains/gcc_arm/7.2.1_2017q4/bin/../lib/gcc/arm-none-eabi/7.2.1/../../../../arm-none-eabi/lib/thumb/v7e-m/fpv4-sp/hard\libg_nano.a(lib_a-printf.o)
 .text._printf_r
                0x00000000       0x28 c:/renesas/synergy/e2studio_v7.5.1_ssp_v1.7.5/toolchains/gcc_arm/7.2.1_2017q4/bin/../lib/gcc/arm-none-eabi/7.2.1/../../../../arm-none-eabi/lib/thumb/v7e-m/fpv4-sp/hard\libg_nano.a(lib_a-printf.o)
 .text          0x00000000        0x0 c:/renesas/synergy/e2studio_v7.5.1_ssp_v1.7.5/toolchains/gcc_arm/7.2.1_2017q4/bin/../lib/gcc/arm-none-eabi/7.2.1/../../../../arm-none-eabi/lib/thumb/v7e-m/fpv4-sp/hard\libg_nano.a(lib_a-rand.o)
 .data          0x00000000        0x0 c:/renesas/synergy/e2studio_v7.5.1_ssp_v1.7.5/toolchains/gcc_arm/7.2.1_2017q4/bin/../lib/gcc/arm-none-eabi/7.2.1/../../../../arm-none-eabi/lib/thumb/v7e-m/fpv4-sp/hard\libg_nano.a(lib_a-rand.o)
 .bss           0x00000000        0x0 c:/renesas/synergy/e2studio_v7.5.1_ssp_v1.7.5/toolchains/gcc_arm/7.2.1_2017q4/bin/../lib/gcc/arm-none-eabi/7.2.1/../../../../arm-none-eabi/lib/thumb/v7e-m/fpv4-sp/hard\libg_nano.a(lib_a-rand.o)
 .text.rand     0x00000000       0x68 c:/renesas/synergy/e2studio_v7.5.1_ssp_v1.7.5/toolchains/gcc_arm/7.2.1_2017q4/bin/../lib/gcc/arm-none-eabi/7.2.1/../../../../arm-none-eabi/lib/thumb/v7e-m/fpv4-sp/hard\libg_nano.a(lib_a-rand.o)
 .text          0x00000000        0x0 c:/renesas/synergy/e2studio_v7.5.1_ssp_v1.7.5/toolchains/gcc_arm/7.2.1_2017q4/bin/../lib/gcc/arm-none-eabi/7.2.1/../../../../arm-none-eabi/lib/thumb/v7e-m/fpv4-sp/hard\libg_nano.a(lib_a-findfp.o)
 .data          0x00000000        0x0 c:/renesas/synergy/e2studio_v7.5.1_ssp_v1.7.5/toolchains/gcc_arm/7.2.1_2017q4/bin/../lib/gcc/arm-none-eabi/7.2.1/../../../../arm-none-eabi/lib/thumb/v7e-m/fpv4-sp/hard\libg_nano.a(lib_a-findfp.o)
 .bss           0x00000000        0x0 c:/renesas/synergy/e2studio_v7.5.1_ssp_v1.7.5/toolchains/gcc_arm/7.2.1_2017q4/bin/../lib/gcc/arm-none-eabi/7.2.1/../../../../arm-none-eabi/lib/thumb/v7e-m/fpv4-sp/hard\libg_nano.a(lib_a-findfp.o)
 .text.__fp_lock
                0x00000000        0x4 c:/renesas/synergy/e2studio_v7.5.1_ssp_v1.7.5/toolchains/gcc_arm/7.2.1_2017q4/bin/../lib/gcc/arm-none-eabi/7.2.1/../../../../arm-none-eabi/lib/thumb/v7e-m/fpv4-sp/hard\libg_nano.a(lib_a-findfp.o)
 .text.__fp_unlock
                0x00000000        0x4 c:/renesas/synergy/e2studio_v7.5.1_ssp_v1.7.5/toolchains/gcc_arm/7.2.1_2017q4/bin/../lib/gcc/arm-none-eabi/7.2.1/../../../../arm-none-eabi/lib/thumb/v7e-m/fpv4-sp/hard\libg_nano.a(lib_a-findfp.o)
 .text._cleanup
                0x00000000        0xc c:/renesas/synergy/e2studio_v7.5.1_ssp_v1.7.5/toolchains/gcc_arm/7.2.1_2017q4/bin/../lib/gcc/arm-none-eabi/7.2.1/../../../../arm-none-eabi/lib/thumb/v7e-m/fpv4-sp/hard\libg_nano.a(lib_a-findfp.o)
 .text.__sfp_lock_acquire
                0x00000000        0x2 c:/renesas/synergy/e2studio_v7.5.1_ssp_v1.7.5/toolchains/gcc_arm/7.2.1_2017q4/bin/../lib/gcc/arm-none-eabi/7.2.1/../../../../arm-none-eabi/lib/thumb/v7e-m/fpv4-sp/hard\libg_nano.a(lib_a-findfp.o)
 .text.__sfp_lock_release
                0x00000000        0x2 c:/renesas/synergy/e2studio_v7.5.1_ssp_v1.7.5/toolchains/gcc_arm/7.2.1_2017q4/bin/../lib/gcc/arm-none-eabi/7.2.1/../../../../arm-none-eabi/lib/thumb/v7e-m/fpv4-sp/hard\libg_nano.a(lib_a-findfp.o)
 .text.__sinit_lock_acquire
                0x00000000        0x2 c:/renesas/synergy/e2studio_v7.5.1_ssp_v1.7.5/toolchains/gcc_arm/7.2.1_2017q4/bin/../lib/gcc/arm-none-eabi/7.2.1/../../../../arm-none-eabi/lib/thumb/v7e-m/fpv4-sp/hard\libg_nano.a(lib_a-findfp.o)
 .text.__sinit_lock_release
                0x00000000        0x2 c:/renesas/synergy/e2studio_v7.5.1_ssp_v1.7.5/toolchains/gcc_arm/7.2.1_2017q4/bin/../lib/gcc/arm-none-eabi/7.2.1/../../../../arm-none-eabi/lib/thumb/v7e-m/fpv4-sp/hard\libg_nano.a(lib_a-findfp.o)
 .text.__fp_lock_all
                0x00000000       0x14 c:/renesas/synergy/e2studio_v7.5.1_ssp_v1.7.5/toolchains/gcc_arm/7.2.1_2017q4/bin/../lib/gcc/arm-none-eabi/7.2.1/../../../../arm-none-eabi/lib/thumb/v7e-m/fpv4-sp/hard\libg_nano.a(lib_a-findfp.o)
 .text.__fp_unlock_all
                0x00000000       0x14 c:/renesas/synergy/e2studio_v7.5.1_ssp_v1.7.5/toolchains/gcc_arm/7.2.1_2017q4/bin/../lib/gcc/arm-none-eabi/7.2.1/../../../../arm-none-eabi/lib/thumb/v7e-m/fpv4-sp/hard\libg_nano.a(lib_a-findfp.o)
 .text          0x00000000        0x0 c:/renesas/synergy/e2studio_v7.5.1_ssp_v1.7.5/toolchains/gcc_arm/7.2.1_2017q4/bin/../lib/gcc/arm-none-eabi/7.2.1/../../../../arm-none-eabi/lib/thumb/v7e-m/fpv4-sp/hard\libg_nano.a(lib_a-fwalk.o)
 .data          0x00000000        0x0 c:/renesas/synergy/e2studio_v7.5.1_ssp_v1.7.5/toolchains/gcc_arm/7.2.1_2017q4/bin/../lib/gcc/arm-none-eabi/7.2.1/../../../../arm-none-eabi/lib/thumb/v7e-m/fpv4-sp/hard\libg_nano.a(lib_a-fwalk.o)
 .bss           0x00000000        0x0 c:/renesas/synergy/e2studio_v7.5.1_ssp_v1.7.5/toolchains/gcc_arm/7.2.1_2017q4/bin/../lib/gcc/arm-none-eabi/7.2.1/../../../../arm-none-eabi/lib/thumb/v7e-m/fpv4-sp/hard\libg_nano.a(lib_a-fwalk.o)
 .text._fwalk   0x00000000       0x38 c:/renesas/synergy/e2studio_v7.5.1_ssp_v1.7.5/toolchains/gcc_arm/7.2.1_2017q4/bin/../lib/gcc/arm-none-eabi/7.2.1/../../../../arm-none-eabi/lib/thumb/v7e-m/fpv4-sp/hard\libg_nano.a(lib_a-fwalk.o)
 .text          0x00000000        0x0 c:/renesas/synergy/e2studio_v7.5.1_ssp_v1.7.5/toolchains/gcc_arm/7.2.1_2017q4/bin/../lib/gcc/arm-none-eabi/7.2.1/../../../../arm-none-eabi/lib/thumb/v7e-m/fpv4-sp/hard\libg_nano.a(lib_a-malloc.o)
 .data          0x00000000        0x0 c:/renesas/synergy/e2studio_v7.5.1_ssp_v1.7.5/toolchains/gcc_arm/7.2.1_2017q4/bin/../lib/gcc/arm-none-eabi/7.2.1/../../../../arm-none-eabi/lib/thumb/v7e-m/fpv4-sp/hard\libg_nano.a(lib_a-malloc.o)
 .bss           0x00000000        0x0 c:/renesas/synergy/e2studio_v7.5.1_ssp_v1.7.5/toolchains/gcc_arm/7.2.1_2017q4/bin/../lib/gcc/arm-none-eabi/7.2.1/../../../../arm-none-eabi/lib/thumb/v7e-m/fpv4-sp/hard\libg_nano.a(lib_a-malloc.o)
 .text.free     0x00000000       0x10 c:/renesas/synergy/e2studio_v7.5.1_ssp_v1.7.5/toolchains/gcc_arm/7.2.1_2017q4/bin/../lib/gcc/arm-none-eabi/7.2.1/../../../../arm-none-eabi/lib/thumb/v7e-m/fpv4-sp/hard\libg_nano.a(lib_a-malloc.o)
 .text          0x00000000        0x0 c:/renesas/synergy/e2studio_v7.5.1_ssp_v1.7.5/toolchains/gcc_arm/7.2.1_2017q4/bin/../lib/gcc/arm-none-eabi/7.2.1/../../../../arm-none-eabi/lib/thumb/v7e-m/fpv4-sp/hard\libg_nano.a(lib_a-nano-freer.o)
 .data          0x00000000        0x0 c:/renesas/synergy/e2studio_v7.5.1_ssp_v1.7.5/toolchains/gcc_arm/7.2.1_2017q4/bin/../lib/gcc/arm-none-eabi/7.2.1/../../../../arm-none-eabi/lib/thumb/v7e-m/fpv4-sp/hard\libg_nano.a(lib_a-nano-freer.o)
 .bss           0x00000000        0x0 c:/renesas/synergy/e2studio_v7.5.1_ssp_v1.7.5/toolchains/gcc_arm/7.2.1_2017q4/bin/../lib/gcc/arm-none-eabi/7.2.1/../../../../arm-none-eabi/lib/thumb/v7e-m/fpv4-sp/hard\libg_nano.a(lib_a-nano-freer.o)
 .text          0x00000000        0x0 c:/renesas/synergy/e2studio_v7.5.1_ssp_v1.7.5/toolchains/gcc_arm/7.2.1_2017q4/bin/../lib/gcc/arm-none-eabi/7.2.1/../../../../arm-none-eabi/lib/thumb/v7e-m/fpv4-sp/hard\libg_nano.a(lib_a-nano-mallocr.o)
 .data          0x00000000        0x0 c:/renesas/synergy/e2studio_v7.5.1_ssp_v1.7.5/toolchains/gcc_arm/7.2.1_2017q4/bin/../lib/gcc/arm-none-eabi/7.2.1/../../../../arm-none-eabi/lib/thumb/v7e-m/fpv4-sp/hard\libg_nano.a(lib_a-nano-mallocr.o)
 .bss           0x00000000        0x0 c:/renesas/synergy/e2studio_v7.5.1_ssp_v1.7.5/toolchains/gcc_arm/7.2.1_2017q4/bin/../lib/gcc/arm-none-eabi/7.2.1/../../../../arm-none-eabi/lib/thumb/v7e-m/fpv4-sp/hard\libg_nano.a(lib_a-nano-mallocr.o)
 .text          0x00000000        0x0 c:/renesas/synergy/e2studio_v7.5.1_ssp_v1.7.5/toolchains/gcc_arm/7.2.1_2017q4/bin/../lib/gcc/arm-none-eabi/7.2.1/../../../../arm-none-eabi/lib/thumb/v7e-m/fpv4-sp/hard\libg_nano.a(lib_a-nano-vfprintf.o)
 .data          0x00000000        0x0 c:/renesas/synergy/e2studio_v7.5.1_ssp_v1.7.5/toolchains/gcc_arm/7.2.1_2017q4/bin/../lib/gcc/arm-none-eabi/7.2.1/../../../../arm-none-eabi/lib/thumb/v7e-m/fpv4-sp/hard\libg_nano.a(lib_a-nano-vfprintf.o)
 .bss           0x00000000        0x0 c:/renesas/synergy/e2studio_v7.5.1_ssp_v1.7.5/toolchains/gcc_arm/7.2.1_2017q4/bin/../lib/gcc/arm-none-eabi/7.2.1/../../../../arm-none-eabi/lib/thumb/v7e-m/fpv4-sp/hard\libg_nano.a(lib_a-nano-vfprintf.o)
 .text.__sprint_r
                0x00000000       0x1a c:/renesas/synergy/e2studio_v7.5.1_ssp_v1.7.5/toolchains/gcc_arm/7.2.1_2017q4/bin/../lib/gcc/arm-none-eabi/7.2.1/../../../../arm-none-eabi/lib/thumb/v7e-m/fpv4-sp/hard\libg_nano.a(lib_a-nano-vfprintf.o)
 .text.vfprintf
                0x00000000       0x14 c:/renesas/synergy/e2studio_v7.5.1_ssp_v1.7.5/toolchains/gcc_arm/7.2.1_2017q4/bin/../lib/gcc/arm-none-eabi/7.2.1/../../../../arm-none-eabi/lib/thumb/v7e-m/fpv4-sp/hard\libg_nano.a(lib_a-nano-vfprintf.o)
 .text          0x00000000        0x0 c:/renesas/synergy/e2studio_v7.5.1_ssp_v1.7.5/toolchains/gcc_arm/7.2.1_2017q4/bin/../lib/gcc/arm-none-eabi/7.2.1/../../../../arm-none-eabi/lib/thumb/v7e-m/fpv4-sp/hard\libg_nano.a(lib_a-nano-vfprintf_i.o)
 .data          0x00000000        0x0 c:/renesas/synergy/e2studio_v7.5.1_ssp_v1.7.5/toolchains/gcc_arm/7.2.1_2017q4/bin/../lib/gcc/arm-none-eabi/7.2.1/../../../../arm-none-eabi/lib/thumb/v7e-m/fpv4-sp/hard\libg_nano.a(lib_a-nano-vfprintf_i.o)
 .bss           0x00000000        0x0 c:/renesas/synergy/e2studio_v7.5.1_ssp_v1.7.5/toolchains/gcc_arm/7.2.1_2017q4/bin/../lib/gcc/arm-none-eabi/7.2.1/../../../../arm-none-eabi/lib/thumb/v7e-m/fpv4-sp/hard\libg_nano.a(lib_a-nano-vfprintf_i.o)
 .text          0x00000000        0x0 c:/renesas/synergy/e2studio_v7.5.1_ssp_v1.7.5/toolchains/gcc_arm/7.2.1_2017q4/bin/../lib/gcc/arm-none-eabi/7.2.1/../../../../arm-none-eabi/lib/thumb/v7e-m/fpv4-sp/hard\libg_nano.a(lib_a-sbrkr.o)
 .data          0x00000000        0x0 c:/renesas/synergy/e2studio_v7.5.1_ssp_v1.7.5/toolchains/gcc_arm/7.2.1_2017q4/bin/../lib/gcc/arm-none-eabi/7.2.1/../../../../arm-none-eabi/lib/thumb/v7e-m/fpv4-sp/hard\libg_nano.a(lib_a-sbrkr.o)
 .bss           0x00000000        0x0 c:/renesas/synergy/e2studio_v7.5.1_ssp_v1.7.5/toolchains/gcc_arm/7.2.1_2017q4/bin/../lib/gcc/arm-none-eabi/7.2.1/../../../../arm-none-eabi/lib/thumb/v7e-m/fpv4-sp/hard\libg_nano.a(lib_a-sbrkr.o)
 .text          0x00000000        0x0 c:/renesas/synergy/e2studio_v7.5.1_ssp_v1.7.5/toolchains/gcc_arm/7.2.1_2017q4/bin/../lib/gcc/arm-none-eabi/7.2.1/../../../../arm-none-eabi/lib/thumb/v7e-m/fpv4-sp/hard\libg_nano.a(lib_a-stdio.o)
 .data          0x00000000        0x0 c:/renesas/synergy/e2studio_v7.5.1_ssp_v1.7.5/toolchains/gcc_arm/7.2.1_2017q4/bin/../lib/gcc/arm-none-eabi/7.2.1/../../../../arm-none-eabi/lib/thumb/v7e-m/fpv4-sp/hard\libg_nano.a(lib_a-stdio.o)
 .bss           0x00000000        0x0 c:/renesas/synergy/e2studio_v7.5.1_ssp_v1.7.5/toolchains/gcc_arm/7.2.1_2017q4/bin/../lib/gcc/arm-none-eabi/7.2.1/../../../../arm-none-eabi/lib/thumb/v7e-m/fpv4-sp/hard\libg_nano.a(lib_a-stdio.o)
 .text.__seofread
                0x00000000        0x4 c:/renesas/synergy/e2studio_v7.5.1_ssp_v1.7.5/toolchains/gcc_arm/7.2.1_2017q4/bin/../lib/gcc/arm-none-eabi/7.2.1/../../../../arm-none-eabi/lib/thumb/v7e-m/fpv4-sp/hard\libg_nano.a(lib_a-stdio.o)
 .text          0x00000000        0x0 c:/renesas/synergy/e2studio_v7.5.1_ssp_v1.7.5/toolchains/gcc_arm/7.2.1_2017q4/bin/../lib/gcc/arm-none-eabi/7.2.1/../../../../arm-none-eabi/lib/thumb/v7e-m/fpv4-sp/hard\libg_nano.a(lib_a-wbuf.o)
 .data          0x00000000        0x0 c:/renesas/synergy/e2studio_v7.5.1_ssp_v1.7.5/toolchains/gcc_arm/7.2.1_2017q4/bin/../lib/gcc/arm-none-eabi/7.2.1/../../../../arm-none-eabi/lib/thumb/v7e-m/fpv4-sp/hard\libg_nano.a(lib_a-wbuf.o)
 .bss           0x00000000        0x0 c:/renesas/synergy/e2studio_v7.5.1_ssp_v1.7.5/toolchains/gcc_arm/7.2.1_2017q4/bin/../lib/gcc/arm-none-eabi/7.2.1/../../../../arm-none-eabi/lib/thumb/v7e-m/fpv4-sp/hard\libg_nano.a(lib_a-wbuf.o)
 .text.__swbuf  0x00000000       0x10 c:/renesas/synergy/e2studio_v7.5.1_ssp_v1.7.5/toolchains/gcc_arm/7.2.1_2017q4/bin/../lib/gcc/arm-none-eabi/7.2.1/../../../../arm-none-eabi/lib/thumb/v7e-m/fpv4-sp/hard\libg_nano.a(lib_a-wbuf.o)
 .text          0x00000000        0x0 c:/renesas/synergy/e2studio_v7.5.1_ssp_v1.7.5/toolchains/gcc_arm/7.2.1_2017q4/bin/../lib/gcc/arm-none-eabi/7.2.1/../../../../arm-none-eabi/lib/thumb/v7e-m/fpv4-sp/hard\libg_nano.a(lib_a-writer.o)
 .data          0x00000000        0x0 c:/renesas/synergy/e2studio_v7.5.1_ssp_v1.7.5/toolchains/gcc_arm/7.2.1_2017q4/bin/../lib/gcc/arm-none-eabi/7.2.1/../../../../arm-none-eabi/lib/thumb/v7e-m/fpv4-sp/hard\libg_nano.a(lib_a-writer.o)
 .bss           0x00000000        0x0 c:/renesas/synergy/e2studio_v7.5.1_ssp_v1.7.5/toolchains/gcc_arm/7.2.1_2017q4/bin/../lib/gcc/arm-none-eabi/7.2.1/../../../../arm-none-eabi/lib/thumb/v7e-m/fpv4-sp/hard\libg_nano.a(lib_a-writer.o)
 .text          0x00000000        0x0 c:/renesas/synergy/e2studio_v7.5.1_ssp_v1.7.5/toolchains/gcc_arm/7.2.1_2017q4/bin/../lib/gcc/arm-none-eabi/7.2.1/../../../../arm-none-eabi/lib/thumb/v7e-m/fpv4-sp/hard\libg_nano.a(lib_a-wsetup.o)
 .data          0x00000000        0x0 c:/renesas/synergy/e2studio_v7.5.1_ssp_v1.7.5/toolchains/gcc_arm/7.2.1_2017q4/bin/../lib/gcc/arm-none-eabi/7.2.1/../../../../arm-none-eabi/lib/thumb/v7e-m/fpv4-sp/hard\libg_nano.a(lib_a-wsetup.o)
 .bss           0x00000000        0x0 c:/renesas/synergy/e2studio_v7.5.1_ssp_v1.7.5/toolchains/gcc_arm/7.2.1_2017q4/bin/../lib/gcc/arm-none-eabi/7.2.1/../../../../arm-none-eabi/lib/thumb/v7e-m/fpv4-sp/hard\libg_nano.a(lib_a-wsetup.o)
 .text          0x00000000        0x0 c:/renesas/synergy/e2studio_v7.5.1_ssp_v1.7.5/toolchains/gcc_arm/7.2.1_2017q4/bin/../lib/gcc/arm-none-eabi/7.2.1/../../../../arm-none-eabi/lib/thumb/v7e-m/fpv4-sp/hard\libg_nano.a(lib_a-closer.o)
 .data          0x00000000        0x0 c:/renesas/synergy/e2studio_v7.5.1_ssp_v1.7.5/toolchains/gcc_arm/7.2.1_2017q4/bin/../lib/gcc/arm-none-eabi/7.2.1/../../../../arm-none-eabi/lib/thumb/v7e-m/fpv4-sp/hard\libg_nano.a(lib_a-closer.o)
 .bss           0x00000000        0x0 c:/renesas/synergy/e2studio_v7.5.1_ssp_v1.7.5/toolchains/gcc_arm/7.2.1_2017q4/bin/../lib/gcc/arm-none-eabi/7.2.1/../../../../arm-none-eabi/lib/thumb/v7e-m/fpv4-sp/hard\libg_nano.a(lib_a-closer.o)
 .text          0x00000000        0x0 c:/renesas/synergy/e2studio_v7.5.1_ssp_v1.7.5/toolchains/gcc_arm/7.2.1_2017q4/bin/../lib/gcc/arm-none-eabi/7.2.1/../../../../arm-none-eabi/lib/thumb/v7e-m/fpv4-sp/hard\libg_nano.a(lib_a-fflush.o)
 .data          0x00000000        0x0 c:/renesas/synergy/e2studio_v7.5.1_ssp_v1.7.5/toolchains/gcc_arm/7.2.1_2017q4/bin/../lib/gcc/arm-none-eabi/7.2.1/../../../../arm-none-eabi/lib/thumb/v7e-m/fpv4-sp/hard\libg_nano.a(lib_a-fflush.o)
 .bss           0x00000000        0x0 c:/renesas/synergy/e2studio_v7.5.1_ssp_v1.7.5/toolchains/gcc_arm/7.2.1_2017q4/bin/../lib/gcc/arm-none-eabi/7.2.1/../../../../arm-none-eabi/lib/thumb/v7e-m/fpv4-sp/hard\libg_nano.a(lib_a-fflush.o)
 .text.fflush   0x00000000       0x24 c:/renesas/synergy/e2studio_v7.5.1_ssp_v1.7.5/toolchains/gcc_arm/7.2.1_2017q4/bin/../lib/gcc/arm-none-eabi/7.2.1/../../../../arm-none-eabi/lib/thumb/v7e-m/fpv4-sp/hard\libg_nano.a(lib_a-fflush.o)
 .text          0x00000000        0x0 c:/renesas/synergy/e2studio_v7.5.1_ssp_v1.7.5/toolchains/gcc_arm/7.2.1_2017q4/bin/../lib/gcc/arm-none-eabi/7.2.1/../../../../arm-none-eabi/lib/thumb/v7e-m/fpv4-sp/hard\libg_nano.a(lib_a-fvwrite.o)
 .data          0x00000000        0x0 c:/renesas/synergy/e2studio_v7.5.1_ssp_v1.7.5/toolchains/gcc_arm/7.2.1_2017q4/bin/../lib/gcc/arm-none-eabi/7.2.1/../../../../arm-none-eabi/lib/thumb/v7e-m/fpv4-sp/hard\libg_nano.a(lib_a-fvwrite.o)
 .bss           0x00000000        0x0 c:/renesas/synergy/e2studio_v7.5.1_ssp_v1.7.5/toolchains/gcc_arm/7.2.1_2017q4/bin/../lib/gcc/arm-none-eabi/7.2.1/../../../../arm-none-eabi/lib/thumb/v7e-m/fpv4-sp/hard\libg_nano.a(lib_a-fvwrite.o)
 .text.__sfvwrite_r
                0x00000000      0x29c c:/renesas/synergy/e2studio_v7.5.1_ssp_v1.7.5/toolchains/gcc_arm/7.2.1_2017q4/bin/../lib/gcc/arm-none-eabi/7.2.1/../../../../arm-none-eabi/lib/thumb/v7e-m/fpv4-sp/hard\libg_nano.a(lib_a-fvwrite.o)
 .debug_frame   0x00000000       0x3c c:/renesas/synergy/e2studio_v7.5.1_ssp_v1.7.5/toolchains/gcc_arm/7.2.1_2017q4/bin/../lib/gcc/arm-none-eabi/7.2.1/../../../../arm-none-eabi/lib/thumb/v7e-m/fpv4-sp/hard\libg_nano.a(lib_a-fvwrite.o)
 .ARM.attributes
                0x00000000       0x34 c:/renesas/synergy/e2studio_v7.5.1_ssp_v1.7.5/toolchains/gcc_arm/7.2.1_2017q4/bin/../lib/gcc/arm-none-eabi/7.2.1/../../../../arm-none-eabi/lib/thumb/v7e-m/fpv4-sp/hard\libg_nano.a(lib_a-fvwrite.o)
 .text          0x00000000        0x0 c:/renesas/synergy/e2studio_v7.5.1_ssp_v1.7.5/toolchains/gcc_arm/7.2.1_2017q4/bin/../lib/gcc/arm-none-eabi/7.2.1/../../../../arm-none-eabi/lib/thumb/v7e-m/fpv4-sp/hard\libg_nano.a(lib_a-lseekr.o)
 .data          0x00000000        0x0 c:/renesas/synergy/e2studio_v7.5.1_ssp_v1.7.5/toolchains/gcc_arm/7.2.1_2017q4/bin/../lib/gcc/arm-none-eabi/7.2.1/../../../../arm-none-eabi/lib/thumb/v7e-m/fpv4-sp/hard\libg_nano.a(lib_a-lseekr.o)
 .bss           0x00000000        0x0 c:/renesas/synergy/e2studio_v7.5.1_ssp_v1.7.5/toolchains/gcc_arm/7.2.1_2017q4/bin/../lib/gcc/arm-none-eabi/7.2.1/../../../../arm-none-eabi/lib/thumb/v7e-m/fpv4-sp/hard\libg_nano.a(lib_a-lseekr.o)
 .text          0x00000000        0x0 c:/renesas/synergy/e2studio_v7.5.1_ssp_v1.7.5/toolchains/gcc_arm/7.2.1_2017q4/bin/../lib/gcc/arm-none-eabi/7.2.1/../../../../arm-none-eabi/lib/thumb/v7e-m/fpv4-sp/hard\libg_nano.a(lib_a-makebuf.o)
 .data          0x00000000        0x0 c:/renesas/synergy/e2studio_v7.5.1_ssp_v1.7.5/toolchains/gcc_arm/7.2.1_2017q4/bin/../lib/gcc/arm-none-eabi/7.2.1/../../../../arm-none-eabi/lib/thumb/v7e-m/fpv4-sp/hard\libg_nano.a(lib_a-makebuf.o)
 .bss           0x00000000        0x0 c:/renesas/synergy/e2studio_v7.5.1_ssp_v1.7.5/toolchains/gcc_arm/7.2.1_2017q4/bin/../lib/gcc/arm-none-eabi/7.2.1/../../../../arm-none-eabi/lib/thumb/v7e-m/fpv4-sp/hard\libg_nano.a(lib_a-makebuf.o)
 .data          0x00000000        0x0 c:/renesas/synergy/e2studio_v7.5.1_ssp_v1.7.5/toolchains/gcc_arm/7.2.1_2017q4/bin/../lib/gcc/arm-none-eabi/7.2.1/../../../../arm-none-eabi/lib/thumb/v7e-m/fpv4-sp/hard\libg_nano.a(lib_a-memchr.o)
 .bss           0x00000000        0x0 c:/renesas/synergy/e2studio_v7.5.1_ssp_v1.7.5/toolchains/gcc_arm/7.2.1_2017q4/bin/../lib/gcc/arm-none-eabi/7.2.1/../../../../arm-none-eabi/lib/thumb/v7e-m/fpv4-sp/hard\libg_nano.a(lib_a-memchr.o)
 .text          0x00000000        0x0 c:/renesas/synergy/e2studio_v7.5.1_ssp_v1.7.5/toolchains/gcc_arm/7.2.1_2017q4/bin/../lib/gcc/arm-none-eabi/7.2.1/../../../../arm-none-eabi/lib/thumb/v7e-m/fpv4-sp/hard\libg_nano.a(lib_a-memcpy-stub.o)
 .data          0x00000000        0x0 c:/renesas/synergy/e2studio_v7.5.1_ssp_v1.7.5/toolchains/gcc_arm/7.2.1_2017q4/bin/../lib/gcc/arm-none-eabi/7.2.1/../../../../arm-none-eabi/lib/thumb/v7e-m/fpv4-sp/hard\libg_nano.a(lib_a-memcpy-stub.o)
 .bss           0x00000000        0x0 c:/renesas/synergy/e2studio_v7.5.1_ssp_v1.7.5/toolchains/gcc_arm/7.2.1_2017q4/bin/../lib/gcc/arm-none-eabi/7.2.1/../../../../arm-none-eabi/lib/thumb/v7e-m/fpv4-sp/hard\libg_nano.a(lib_a-memcpy-stub.o)
 .text.memcpy   0x00000000       0x16 c:/renesas/synergy/e2studio_v7.5.1_ssp_v1.7.5/toolchains/gcc_arm/7.2.1_2017q4/bin/../lib/gcc/arm-none-eabi/7.2.1/../../../../arm-none-eabi/lib/thumb/v7e-m/fpv4-sp/hard\libg_nano.a(lib_a-memcpy-stub.o)
 .debug_frame   0x00000000       0x28 c:/renesas/synergy/e2studio_v7.5.1_ssp_v1.7.5/toolchains/gcc_arm/7.2.1_2017q4/bin/../lib/gcc/arm-none-eabi/7.2.1/../../../../arm-none-eabi/lib/thumb/v7e-m/fpv4-sp/hard\libg_nano.a(lib_a-memcpy-stub.o)
 .ARM.attributes
                0x00000000       0x34 c:/renesas/synergy/e2studio_v7.5.1_ssp_v1.7.5/toolchains/gcc_arm/7.2.1_2017q4/bin/../lib/gcc/arm-none-eabi/7.2.1/../../../../arm-none-eabi/lib/thumb/v7e-m/fpv4-sp/hard\libg_nano.a(lib_a-memcpy-stub.o)
 .text          0x00000000        0x0 c:/renesas/synergy/e2studio_v7.5.1_ssp_v1.7.5/toolchains/gcc_arm/7.2.1_2017q4/bin/../lib/gcc/arm-none-eabi/7.2.1/../../../../arm-none-eabi/lib/thumb/v7e-m/fpv4-sp/hard\libg_nano.a(lib_a-memmove.o)
 .data          0x00000000        0x0 c:/renesas/synergy/e2studio_v7.5.1_ssp_v1.7.5/toolchains/gcc_arm/7.2.1_2017q4/bin/../lib/gcc/arm-none-eabi/7.2.1/../../../../arm-none-eabi/lib/thumb/v7e-m/fpv4-sp/hard\libg_nano.a(lib_a-memmove.o)
 .bss           0x00000000        0x0 c:/renesas/synergy/e2studio_v7.5.1_ssp_v1.7.5/toolchains/gcc_arm/7.2.1_2017q4/bin/../lib/gcc/arm-none-eabi/7.2.1/../../../../arm-none-eabi/lib/thumb/v7e-m/fpv4-sp/hard\libg_nano.a(lib_a-memmove.o)
 .text.memmove  0x00000000       0x32 c:/renesas/synergy/e2studio_v7.5.1_ssp_v1.7.5/toolchains/gcc_arm/7.2.1_2017q4/bin/../lib/gcc/arm-none-eabi/7.2.1/../../../../arm-none-eabi/lib/thumb/v7e-m/fpv4-sp/hard\libg_nano.a(lib_a-memmove.o)
 .debug_frame   0x00000000       0x28 c:/renesas/synergy/e2studio_v7.5.1_ssp_v1.7.5/toolchains/gcc_arm/7.2.1_2017q4/bin/../lib/gcc/arm-none-eabi/7.2.1/../../../../arm-none-eabi/lib/thumb/v7e-m/fpv4-sp/hard\libg_nano.a(lib_a-memmove.o)
 .ARM.attributes
                0x00000000       0x34 c:/renesas/synergy/e2studio_v7.5.1_ssp_v1.7.5/toolchains/gcc_arm/7.2.1_2017q4/bin/../lib/gcc/arm-none-eabi/7.2.1/../../../../arm-none-eabi/lib/thumb/v7e-m/fpv4-sp/hard\libg_nano.a(lib_a-memmove.o)
 .text          0x00000000        0x0 c:/renesas/synergy/e2studio_v7.5.1_ssp_v1.7.5/toolchains/gcc_arm/7.2.1_2017q4/bin/../lib/gcc/arm-none-eabi/7.2.1/../../../../arm-none-eabi/lib/thumb/v7e-m/fpv4-sp/hard\libg_nano.a(lib_a-mlock.o)
 .data          0x00000000        0x0 c:/renesas/synergy/e2studio_v7.5.1_ssp_v1.7.5/toolchains/gcc_arm/7.2.1_2017q4/bin/../lib/gcc/arm-none-eabi/7.2.1/../../../../arm-none-eabi/lib/thumb/v7e-m/fpv4-sp/hard\libg_nano.a(lib_a-mlock.o)
 .bss           0x00000000        0x0 c:/renesas/synergy/e2studio_v7.5.1_ssp_v1.7.5/toolchains/gcc_arm/7.2.1_2017q4/bin/../lib/gcc/arm-none-eabi/7.2.1/../../../../arm-none-eabi/lib/thumb/v7e-m/fpv4-sp/hard\libg_nano.a(lib_a-mlock.o)
 .text          0x00000000        0x0 c:/renesas/synergy/e2studio_v7.5.1_ssp_v1.7.5/toolchains/gcc_arm/7.2.1_2017q4/bin/../lib/gcc/arm-none-eabi/7.2.1/../../../../arm-none-eabi/lib/thumb/v7e-m/fpv4-sp/hard\libg_nano.a(lib_a-nano-reallocr.o)
 .data          0x00000000        0x0 c:/renesas/synergy/e2studio_v7.5.1_ssp_v1.7.5/toolchains/gcc_arm/7.2.1_2017q4/bin/../lib/gcc/arm-none-eabi/7.2.1/../../../../arm-none-eabi/lib/thumb/v7e-m/fpv4-sp/hard\libg_nano.a(lib_a-nano-reallocr.o)
 .bss           0x00000000        0x0 c:/renesas/synergy/e2studio_v7.5.1_ssp_v1.7.5/toolchains/gcc_arm/7.2.1_2017q4/bin/../lib/gcc/arm-none-eabi/7.2.1/../../../../arm-none-eabi/lib/thumb/v7e-m/fpv4-sp/hard\libg_nano.a(lib_a-nano-reallocr.o)
 .text._realloc_r
                0x00000000       0x4c c:/renesas/synergy/e2studio_v7.5.1_ssp_v1.7.5/toolchains/gcc_arm/7.2.1_2017q4/bin/../lib/gcc/arm-none-eabi/7.2.1/../../../../arm-none-eabi/lib/thumb/v7e-m/fpv4-sp/hard\libg_nano.a(lib_a-nano-reallocr.o)
 .debug_frame   0x00000000       0x3c c:/renesas/synergy/e2studio_v7.5.1_ssp_v1.7.5/toolchains/gcc_arm/7.2.1_2017q4/bin/../lib/gcc/arm-none-eabi/7.2.1/../../../../arm-none-eabi/lib/thumb/v7e-m/fpv4-sp/hard\libg_nano.a(lib_a-nano-reallocr.o)
 .ARM.attributes
                0x00000000       0x34 c:/renesas/synergy/e2studio_v7.5.1_ssp_v1.7.5/toolchains/gcc_arm/7.2.1_2017q4/bin/../lib/gcc/arm-none-eabi/7.2.1/../../../../arm-none-eabi/lib/thumb/v7e-m/fpv4-sp/hard\libg_nano.a(lib_a-nano-reallocr.o)
 .text          0x00000000        0x0 c:/renesas/synergy/e2studio_v7.5.1_ssp_v1.7.5/toolchains/gcc_arm/7.2.1_2017q4/bin/../lib/gcc/arm-none-eabi/7.2.1/../../../../arm-none-eabi/lib/thumb/v7e-m/fpv4-sp/hard\libg_nano.a(lib_a-readr.o)
 .data          0x00000000        0x0 c:/renesas/synergy/e2studio_v7.5.1_ssp_v1.7.5/toolchains/gcc_arm/7.2.1_2017q4/bin/../lib/gcc/arm-none-eabi/7.2.1/../../../../arm-none-eabi/lib/thumb/v7e-m/fpv4-sp/hard\libg_nano.a(lib_a-readr.o)
 .bss           0x00000000        0x0 c:/renesas/synergy/e2studio_v7.5.1_ssp_v1.7.5/toolchains/gcc_arm/7.2.1_2017q4/bin/../lib/gcc/arm-none-eabi/7.2.1/../../../../arm-none-eabi/lib/thumb/v7e-m/fpv4-sp/hard\libg_nano.a(lib_a-readr.o)
 .text          0x00000000        0x0 c:/renesas/synergy/e2studio_v7.5.1_ssp_v1.7.5/toolchains/gcc_arm/7.2.1_2017q4/bin/../lib/gcc/arm-none-eabi/7.2.1/../../../../arm-none-eabi/lib/thumb/v7e-m/fpv4-sp/hard\libg_nano.a(lib_a-reent.o)
 .data          0x00000000        0x0 c:/renesas/synergy/e2studio_v7.5.1_ssp_v1.7.5/toolchains/gcc_arm/7.2.1_2017q4/bin/../lib/gcc/arm-none-eabi/7.2.1/../../../../arm-none-eabi/lib/thumb/v7e-m/fpv4-sp/hard\libg_nano.a(lib_a-reent.o)
 .bss           0x00000000        0x0 c:/renesas/synergy/e2studio_v7.5.1_ssp_v1.7.5/toolchains/gcc_arm/7.2.1_2017q4/bin/../lib/gcc/arm-none-eabi/7.2.1/../../../../arm-none-eabi/lib/thumb/v7e-m/fpv4-sp/hard\libg_nano.a(lib_a-reent.o)
 .text.cleanup_glue
                0x00000000       0x1a c:/renesas/synergy/e2studio_v7.5.1_ssp_v1.7.5/toolchains/gcc_arm/7.2.1_2017q4/bin/../lib/gcc/arm-none-eabi/7.2.1/../../../../arm-none-eabi/lib/thumb/v7e-m/fpv4-sp/hard\libg_nano.a(lib_a-reent.o)
 .text._reclaim_reent
                0x00000000       0xb8 c:/renesas/synergy/e2studio_v7.5.1_ssp_v1.7.5/toolchains/gcc_arm/7.2.1_2017q4/bin/../lib/gcc/arm-none-eabi/7.2.1/../../../../arm-none-eabi/lib/thumb/v7e-m/fpv4-sp/hard\libg_nano.a(lib_a-reent.o)
 .text          0x00000000        0x0 c:/renesas/synergy/e2studio_v7.5.1_ssp_v1.7.5/toolchains/gcc_arm/7.2.1_2017q4/bin/../lib/gcc/arm-none-eabi/7.2.1/../../../../arm-none-eabi/lib/thumb/v7e-m/fpv4-sp/hard\libg_nano.a(lib_a-fstatr.o)
 .data          0x00000000        0x0 c:/renesas/synergy/e2studio_v7.5.1_ssp_v1.7.5/toolchains/gcc_arm/7.2.1_2017q4/bin/../lib/gcc/arm-none-eabi/7.2.1/../../../../arm-none-eabi/lib/thumb/v7e-m/fpv4-sp/hard\libg_nano.a(lib_a-fstatr.o)
 .bss           0x00000000        0x0 c:/renesas/synergy/e2studio_v7.5.1_ssp_v1.7.5/toolchains/gcc_arm/7.2.1_2017q4/bin/../lib/gcc/arm-none-eabi/7.2.1/../../../../arm-none-eabi/lib/thumb/v7e-m/fpv4-sp/hard\libg_nano.a(lib_a-fstatr.o)
 .text          0x00000000        0x0 c:/renesas/synergy/e2studio_v7.5.1_ssp_v1.7.5/toolchains/gcc_arm/7.2.1_2017q4/bin/../lib/gcc/arm-none-eabi/7.2.1/../../../../arm-none-eabi/lib/thumb/v7e-m/fpv4-sp/hard\libg_nano.a(lib_a-isattyr.o)
 .data          0x00000000        0x0 c:/renesas/synergy/e2studio_v7.5.1_ssp_v1.7.5/toolchains/gcc_arm/7.2.1_2017q4/bin/../lib/gcc/arm-none-eabi/7.2.1/../../../../arm-none-eabi/lib/thumb/v7e-m/fpv4-sp/hard\libg_nano.a(lib_a-isattyr.o)
 .bss           0x00000000        0x0 c:/renesas/synergy/e2studio_v7.5.1_ssp_v1.7.5/toolchains/gcc_arm/7.2.1_2017q4/bin/../lib/gcc/arm-none-eabi/7.2.1/../../../../arm-none-eabi/lib/thumb/v7e-m/fpv4-sp/hard\libg_nano.a(lib_a-isattyr.o)
 .text          0x00000000        0x0 c:/renesas/synergy/e2studio_v7.5.1_ssp_v1.7.5/toolchains/gcc_arm/7.2.1_2017q4/bin/../lib/gcc/arm-none-eabi/7.2.1/../../../../arm-none-eabi/lib/thumb/v7e-m/fpv4-sp/hard\libg_nano.a(lib_a-nano-msizer.o)
 .data          0x00000000        0x0 c:/renesas/synergy/e2studio_v7.5.1_ssp_v1.7.5/toolchains/gcc_arm/7.2.1_2017q4/bin/../lib/gcc/arm-none-eabi/7.2.1/../../../../arm-none-eabi/lib/thumb/v7e-m/fpv4-sp/hard\libg_nano.a(lib_a-nano-msizer.o)
 .bss           0x00000000        0x0 c:/renesas/synergy/e2studio_v7.5.1_ssp_v1.7.5/toolchains/gcc_arm/7.2.1_2017q4/bin/../lib/gcc/arm-none-eabi/7.2.1/../../../../arm-none-eabi/lib/thumb/v7e-m/fpv4-sp/hard\libg_nano.a(lib_a-nano-msizer.o)
 .text._malloc_usable_size_r
                0x00000000       0x10 c:/renesas/synergy/e2studio_v7.5.1_ssp_v1.7.5/toolchains/gcc_arm/7.2.1_2017q4/bin/../lib/gcc/arm-none-eabi/7.2.1/../../../../arm-none-eabi/lib/thumb/v7e-m/fpv4-sp/hard\libg_nano.a(lib_a-nano-msizer.o)
 .debug_frame   0x00000000       0x20 c:/renesas/synergy/e2studio_v7.5.1_ssp_v1.7.5/toolchains/gcc_arm/7.2.1_2017q4/bin/../lib/gcc/arm-none-eabi/7.2.1/../../../../arm-none-eabi/lib/thumb/v7e-m/fpv4-sp/hard\libg_nano.a(lib_a-nano-msizer.o)
 .ARM.attributes
                0x00000000       0x34 c:/renesas/synergy/e2studio_v7.5.1_ssp_v1.7.5/toolchains/gcc_arm/7.2.1_2017q4/bin/../lib/gcc/arm-none-eabi/7.2.1/../../../../arm-none-eabi/lib/thumb/v7e-m/fpv4-sp/hard\libg_nano.a(lib_a-nano-msizer.o)
 .text          0x00000000        0x0 c:/renesas/synergy/e2studio_v7.5.1_ssp_v1.7.5/toolchains/gcc_arm/7.2.1_2017q4/bin/../lib/gcc/arm-none-eabi/7.2.1/../../../../arm-none-eabi/lib/thumb/v7e-m/fpv4-sp/hard\librdimon_nano.a(rdimon-syscalls.o)
 .data          0x00000000        0x0 c:/renesas/synergy/e2studio_v7.5.1_ssp_v1.7.5/toolchains/gcc_arm/7.2.1_2017q4/bin/../lib/gcc/arm-none-eabi/7.2.1/../../../../arm-none-eabi/lib/thumb/v7e-m/fpv4-sp/hard\librdimon_nano.a(rdimon-syscalls.o)
 .bss           0x00000000        0x0 c:/renesas/synergy/e2studio_v7.5.1_ssp_v1.7.5/toolchains/gcc_arm/7.2.1_2017q4/bin/../lib/gcc/arm-none-eabi/7.2.1/../../../../arm-none-eabi/lib/thumb/v7e-m/fpv4-sp/hard\librdimon_nano.a(rdimon-syscalls.o)
 .text._getpid  0x00000000        0x4 c:/renesas/synergy/e2studio_v7.5.1_ssp_v1.7.5/toolchains/gcc_arm/7.2.1_2017q4/bin/../lib/gcc/arm-none-eabi/7.2.1/../../../../arm-none-eabi/lib/thumb/v7e-m/fpv4-sp/hard\librdimon_nano.a(rdimon-syscalls.o)
 .text._sbrk    0x00000000       0x48 c:/renesas/synergy/e2studio_v7.5.1_ssp_v1.7.5/toolchains/gcc_arm/7.2.1_2017q4/bin/../lib/gcc/arm-none-eabi/7.2.1/../../../../arm-none-eabi/lib/thumb/v7e-m/fpv4-sp/hard\librdimon_nano.a(rdimon-syscalls.o)
 .text._open    0x00000000       0x12 c:/renesas/synergy/e2studio_v7.5.1_ssp_v1.7.5/toolchains/gcc_arm/7.2.1_2017q4/bin/../lib/gcc/arm-none-eabi/7.2.1/../../../../arm-none-eabi/lib/thumb/v7e-m/fpv4-sp/hard\librdimon_nano.a(rdimon-syscalls.o)
 .text._has_ext_exit_extended
                0x00000000       0x18 c:/renesas/synergy/e2studio_v7.5.1_ssp_v1.7.5/toolchains/gcc_arm/7.2.1_2017q4/bin/../lib/gcc/arm-none-eabi/7.2.1/../../../../arm-none-eabi/lib/thumb/v7e-m/fpv4-sp/hard\librdimon_nano.a(rdimon-syscalls.o)
 .text._link    0x00000000       0x10 c:/renesas/synergy/e2studio_v7.5.1_ssp_v1.7.5/toolchains/gcc_arm/7.2.1_2017q4/bin/../lib/gcc/arm-none-eabi/7.2.1/../../../../arm-none-eabi/lib/thumb/v7e-m/fpv4-sp/hard\librdimon_nano.a(rdimon-syscalls.o)
 .text._unlink  0x00000000       0x28 c:/renesas/synergy/e2studio_v7.5.1_ssp_v1.7.5/toolchains/gcc_arm/7.2.1_2017q4/bin/../lib/gcc/arm-none-eabi/7.2.1/../../../../arm-none-eabi/lib/thumb/v7e-m/fpv4-sp/hard\librdimon_nano.a(rdimon-syscalls.o)
 .text._gettimeofday
                0x00000000       0x2a c:/renesas/synergy/e2studio_v7.5.1_ssp_v1.7.5/toolchains/gcc_arm/7.2.1_2017q4/bin/../lib/gcc/arm-none-eabi/7.2.1/../../../../arm-none-eabi/lib/thumb/v7e-m/fpv4-sp/hard\librdimon_nano.a(rdimon-syscalls.o)
 .text._clock   0x00000000       0x12 c:/renesas/synergy/e2studio_v7.5.1_ssp_v1.7.5/toolchains/gcc_arm/7.2.1_2017q4/bin/../lib/gcc/arm-none-eabi/7.2.1/../../../../arm-none-eabi/lib/thumb/v7e-m/fpv4-sp/hard\librdimon_nano.a(rdimon-syscalls.o)
 .text._times   0x00000000       0x16 c:/renesas/synergy/e2studio_v7.5.1_ssp_v1.7.5/toolchains/gcc_arm/7.2.1_2017q4/bin/../lib/gcc/arm-none-eabi/7.2.1/../../../../arm-none-eabi/lib/thumb/v7e-m/fpv4-sp/hard\librdimon_nano.a(rdimon-syscalls.o)
 .text._system  0x00000000       0x3e c:/renesas/synergy/e2studio_v7.5.1_ssp_v1.7.5/toolchains/gcc_arm/7.2.1_2017q4/bin/../lib/gcc/arm-none-eabi/7.2.1/../../../../arm-none-eabi/lib/thumb/v7e-m/fpv4-sp/hard\librdimon_nano.a(rdimon-syscalls.o)
 .text._rename  0x00000000       0x36 c:/renesas/synergy/e2studio_v7.5.1_ssp_v1.7.5/toolchains/gcc_arm/7.2.1_2017q4/bin/../lib/gcc/arm-none-eabi/7.2.1/../../../../arm-none-eabi/lib/thumb/v7e-m/fpv4-sp/hard\librdimon_nano.a(rdimon-syscalls.o)
 .bss.heap_end.7521
                0x00000000        0x4 c:/renesas/synergy/e2studio_v7.5.1_ssp_v1.7.5/toolchains/gcc_arm/7.2.1_2017q4/bin/../lib/gcc/arm-none-eabi/7.2.1/../../../../arm-none-eabi/lib/thumb/v7e-m/fpv4-sp/hard\librdimon_nano.a(rdimon-syscalls.o)
 .data.__heap_limit
                0x00000000        0x4 c:/renesas/synergy/e2studio_v7.5.1_ssp_v1.7.5/toolchains/gcc_arm/7.2.1_2017q4/bin/../lib/gcc/arm-none-eabi/7.2.1/../../../../arm-none-eabi/lib/thumb/v7e-m/fpv4-sp/hard\librdimon_nano.a(rdimon-syscalls.o)
 .text          0x00000000        0x0 c:/renesas/synergy/e2studio_v7.5.1_ssp_v1.7.5/toolchains/gcc_arm/7.2.1_2017q4/bin/../lib/gcc/arm-none-eabi/7.2.1/../../../../arm-none-eabi/lib/thumb/v7e-m/fpv4-sp/hard\librdimon_nano.a(rdimon-_exit.o)
 .data          0x00000000        0x0 c:/renesas/synergy/e2studio_v7.5.1_ssp_v1.7.5/toolchains/gcc_arm/7.2.1_2017q4/bin/../lib/gcc/arm-none-eabi/7.2.1/../../../../arm-none-eabi/lib/thumb/v7e-m/fpv4-sp/hard\librdimon_nano.a(rdimon-_exit.o)
 .bss           0x00000000        0x0 c:/renesas/synergy/e2studio_v7.5.1_ssp_v1.7.5/toolchains/gcc_arm/7.2.1_2017q4/bin/../lib/gcc/arm-none-eabi/7.2.1/../../../../arm-none-eabi/lib/thumb/v7e-m/fpv4-sp/hard\librdimon_nano.a(rdimon-_exit.o)
 .text._exit    0x00000000        0x8 c:/renesas/synergy/e2studio_v7.5.1_ssp_v1.7.5/toolchains/gcc_arm/7.2.1_2017q4/bin/../lib/gcc/arm-none-eabi/7.2.1/../../../../arm-none-eabi/lib/thumb/v7e-m/fpv4-sp/hard\librdimon_nano.a(rdimon-_exit.o)
 .debug_frame   0x00000000       0x20 c:/renesas/synergy/e2studio_v7.5.1_ssp_v1.7.5/toolchains/gcc_arm/7.2.1_2017q4/bin/../lib/gcc/arm-none-eabi/7.2.1/../../../../arm-none-eabi/lib/thumb/v7e-m/fpv4-sp/hard\librdimon_nano.a(rdimon-_exit.o)
 .ARM.attributes
                0x00000000       0x34 c:/renesas/synergy/e2studio_v7.5.1_ssp_v1.7.5/toolchains/gcc_arm/7.2.1_2017q4/bin/../lib/gcc/arm-none-eabi/7.2.1/../../../../arm-none-eabi/lib/thumb/v7e-m/fpv4-sp/hard\librdimon_nano.a(rdimon-_exit.o)
 .text          0x00000000        0x0 c:/renesas/synergy/e2studio_v7.5.1_ssp_v1.7.5/toolchains/gcc_arm/7.2.1_2017q4/bin/../lib/gcc/arm-none-eabi/7.2.1/../../../../arm-none-eabi/lib/thumb/v7e-m/fpv4-sp/hard\librdimon_nano.a(rdimon-_kill.o)
 .data          0x00000000        0x0 c:/renesas/synergy/e2studio_v7.5.1_ssp_v1.7.5/toolchains/gcc_arm/7.2.1_2017q4/bin/../lib/gcc/arm-none-eabi/7.2.1/../../../../arm-none-eabi/lib/thumb/v7e-m/fpv4-sp/hard\librdimon_nano.a(rdimon-_kill.o)
 .bss           0x00000000        0x0 c:/renesas/synergy/e2studio_v7.5.1_ssp_v1.7.5/toolchains/gcc_arm/7.2.1_2017q4/bin/../lib/gcc/arm-none-eabi/7.2.1/../../../../arm-none-eabi/lib/thumb/v7e-m/fpv4-sp/hard\librdimon_nano.a(rdimon-_kill.o)
 .text._kill    0x00000000       0x34 c:/renesas/synergy/e2studio_v7.5.1_ssp_v1.7.5/toolchains/gcc_arm/7.2.1_2017q4/bin/../lib/gcc/arm-none-eabi/7.2.1/../../../../arm-none-eabi/lib/thumb/v7e-m/fpv4-sp/hard\librdimon_nano.a(rdimon-_kill.o)
 .debug_frame   0x00000000       0x2c c:/renesas/synergy/e2studio_v7.5.1_ssp_v1.7.5/toolchains/gcc_arm/7.2.1_2017q4/bin/../lib/gcc/arm-none-eabi/7.2.1/../../../../arm-none-eabi/lib/thumb/v7e-m/fpv4-sp/hard\librdimon_nano.a(rdimon-_kill.o)
 .ARM.attributes
                0x00000000       0x34 c:/renesas/synergy/e2studio_v7.5.1_ssp_v1.7.5/toolchains/gcc_arm/7.2.1_2017q4/bin/../lib/gcc/arm-none-eabi/7.2.1/../../../../arm-none-eabi/lib/thumb/v7e-m/fpv4-sp/hard\librdimon_nano.a(rdimon-_kill.o)
 .data          0x00000000        0x0 c:/renesas/synergy/e2studio_v7.5.1_ssp_v1.7.5/toolchains/gcc_arm/7.2.1_2017q4/bin/../lib/gcc/arm-none-eabi/7.2.1/../../../../arm-none-eabi/lib/thumb/v7e-m/fpv4-sp/hard\libc_nano.a(lib_a-strlen.o)
 .bss           0x00000000        0x0 c:/renesas/synergy/e2studio_v7.5.1_ssp_v1.7.5/toolchains/gcc_arm/7.2.1_2017q4/bin/../lib/gcc/arm-none-eabi/7.2.1/../../../../arm-none-eabi/lib/thumb/v7e-m/fpv4-sp/hard\libc_nano.a(lib_a-strlen.o)
 .text          0x00000000        0x0 c:/renesas/synergy/e2studio_v7.5.1_ssp_v1.7.5/toolchains/gcc_arm/7.2.1_2017q4/bin/../lib/gcc/arm-none-eabi/7.2.1/thumb/v7e-m/fpv4-sp/hard/crtend.o
 .data          0x00000000        0x0 c:/renesas/synergy/e2studio_v7.5.1_ssp_v1.7.5/toolchains/gcc_arm/7.2.1_2017q4/bin/../lib/gcc/arm-none-eabi/7.2.1/thumb/v7e-m/fpv4-sp/hard/crtend.o
 .bss           0x00000000        0x0 c:/renesas/synergy/e2studio_v7.5.1_ssp_v1.7.5/toolchains/gcc_arm/7.2.1_2017q4/bin/../lib/gcc/arm-none-eabi/7.2.1/thumb/v7e-m/fpv4-sp/hard/crtend.o
 .text          0x00000000        0x0 c:/renesas/synergy/e2studio_v7.5.1_ssp_v1.7.5/toolchains/gcc_arm/7.2.1_2017q4/bin/../lib/gcc/arm-none-eabi/7.2.1/thumb/v7e-m/fpv4-sp/hard/crtn.o
 .data          0x00000000        0x0 c:/renesas/synergy/e2studio_v7.5.1_ssp_v1.7.5/toolchains/gcc_arm/7.2.1_2017q4/bin/../lib/gcc/arm-none-eabi/7.2.1/thumb/v7e-m/fpv4-sp/hard/crtn.o
 .bss           0x00000000        0x0 c:/renesas/synergy/e2studio_v7.5.1_ssp_v1.7.5/toolchains/gcc_arm/7.2.1_2017q4/bin/../lib/gcc/arm-none-eabi/7.2.1/thumb/v7e-m/fpv4-sp/hard/crtn.o

Memory Configuration

Name             Origin             Length             Attributes
FLASH            0x00000000         0x00200000         xr
RAM              0x1ffe0000         0x000a0000         xrw
DATA_FLASH       0x40100000         0x00010000         xr
QSPI_FLASH       0x60000000         0x04000000         xr
SDRAM            0x90000000         0x02000000         xrw
ID_CODES         0x0100a150         0x00000010         xr
*default*        0x00000000         0xffffffff

Linker script and memory map

LOAD c:/renesas/synergy/e2studio_v7.5.1_ssp_v1.7.5/toolchains/gcc_arm/7.2.1_2017q4/bin/../lib/gcc/arm-none-eabi/7.2.1/thumb/v7e-m/fpv4-sp/hard/crti.o
LOAD c:/renesas/synergy/e2studio_v7.5.1_ssp_v1.7.5/toolchains/gcc_arm/7.2.1_2017q4/bin/../lib/gcc/arm-none-eabi/7.2.1/thumb/v7e-m/fpv4-sp/hard/crtbegin.o
LOAD c:/renesas/synergy/e2studio_v7.5.1_ssp_v1.7.5/toolchains/gcc_arm/7.2.1_2017q4/bin/../lib/gcc/arm-none-eabi/7.2.1/../../../../arm-none-eabi/lib/thumb/v7e-m/fpv4-sp/hard/rdimon-crt0.o
START GROUP
LOAD ./synergy/ssp/src/driver/r_sci_uart/r_sci_uart.o
LOAD ./synergy/ssp/src/driver/r_ioport/r_ioport.o
LOAD ./synergy/ssp/src/driver/r_gpt/r_gpt.o
LOAD ./synergy/ssp/src/driver/r_fmi/r_fmi.o
LOAD ./synergy/ssp/src/driver/r_elc/r_elc.o
LOAD ./synergy/ssp/src/driver/r_dtc/r_dtc.o
LOAD ./synergy/ssp/src/driver/r_cgc/r_cgc.o
LOAD ./synergy/ssp/src/driver/r_adc/r_adc.o
LOAD ./synergy/ssp/src/bsp/mcu/s5d9/bsp_cache.o
LOAD ./synergy/ssp/src/bsp/mcu/s5d9/bsp_clocks.o
LOAD ./synergy/ssp/src/bsp/mcu/s5d9/bsp_feature.o
LOAD ./synergy/ssp/src/bsp/mcu/s5d9/bsp_fmi_R7FS5D97E3A01CFC.o
LOAD ./synergy/ssp/src/bsp/mcu/s5d9/bsp_group_irq.o
LOAD ./synergy/ssp/src/bsp/mcu/s5d9/bsp_hw_locks.o
LOAD ./synergy/ssp/src/bsp/mcu/s5d9/bsp_module_stop.o
LOAD ./synergy/ssp/src/bsp/mcu/s5d9/bsp_rom_registers.o
LOAD ./synergy/ssp/src/bsp/mcu/all/bsp_common.o
LOAD ./synergy/ssp/src/bsp/mcu/all/bsp_common_leds.o
LOAD ./synergy/ssp/src/bsp/mcu/all/bsp_delay.o
LOAD ./synergy/ssp/src/bsp/mcu/all/bsp_irq.o
LOAD ./synergy/ssp/src/bsp/mcu/all/bsp_locking.o
LOAD ./synergy/ssp/src/bsp/mcu/all/bsp_register_protection.o
LOAD ./synergy/ssp/src/bsp/mcu/all/bsp_sbrk.o
LOAD ./synergy/ssp/src/bsp/cmsis/Device/RENESAS/S5D9/Source/startup_S5D9.o
LOAD ./synergy/ssp/src/bsp/cmsis/Device/RENESAS/S5D9/Source/system_S5D9.o
LOAD ./synergy/board/s5d9_pk/bsp_init.o
LOAD ./synergy/board/s5d9_pk/bsp_leds.o
LOAD ./synergy/board/s5d9_pk/bsp_qspi.o
LOAD ./src/synergy_gen/common_data.o
LOAD ./src/synergy_gen/hal_data.o
LOAD ./src/synergy_gen/main.o
LOAD ./src/synergy_gen/pin_data.o
LOAD ./src/synergy_gen/thread0.o
LOAD ./src/hal_entry.o
LOAD ./src/thread0_entry.o
LOAD C:\Users\kirti\PK_S5D9\verify\synergy\ssp\src\bsp\cmsis\DSP_Lib\cm4_gcc\libDSP_Lib.a
LOAD C:\Users\kirti\PK_S5D9\verify\synergy\ssp\src\framework\el\tx\cm4_gcc\libtx.a
END GROUP
START GROUP
LOAD c:/renesas/synergy/e2studio_v7.5.1_ssp_v1.7.5/toolchains/gcc_arm/7.2.1_2017q4/bin/../lib/gcc/arm-none-eabi/7.2.1/thumb/v7e-m/fpv4-sp/hard\libgcc.a
LOAD c:/renesas/synergy/e2studio_v7.5.1_ssp_v1.7.5/toolchains/gcc_arm/7.2.1_2017q4/bin/../lib/gcc/arm-none-eabi/7.2.1/../../../../arm-none-eabi/lib/thumb/v7e-m/fpv4-sp/hard\libg_nano.a
LOAD c:/renesas/synergy/e2studio_v7.5.1_ssp_v1.7.5/toolchains/gcc_arm/7.2.1_2017q4/bin/../lib/gcc/arm-none-eabi/7.2.1/../../../../arm-none-eabi/lib/thumb/v7e-m/fpv4-sp/hard\libc_nano.a
END GROUP
START GROUP
LOAD c:/renesas/synergy/e2studio_v7.5.1_ssp_v1.7.5/toolchains/gcc_arm/7.2.1_2017q4/bin/../lib/gcc/arm-none-eabi/7.2.1/thumb/v7e-m/fpv4-sp/hard\libgcc.a
LOAD c:/renesas/synergy/e2studio_v7.5.1_ssp_v1.7.5/toolchains/gcc_arm/7.2.1_2017q4/bin/../lib/gcc/arm-none-eabi/7.2.1/../../../../arm-none-eabi/lib/thumb/v7e-m/fpv4-sp/hard\libc_nano.a
LOAD c:/renesas/synergy/e2studio_v7.5.1_ssp_v1.7.5/toolchains/gcc_arm/7.2.1_2017q4/bin/../lib/gcc/arm-none-eabi/7.2.1/../../../../arm-none-eabi/lib/thumb/v7e-m/fpv4-sp/hard\librdimon_nano.a
END GROUP
START GROUP
LOAD c:/renesas/synergy/e2studio_v7.5.1_ssp_v1.7.5/toolchains/gcc_arm/7.2.1_2017q4/bin/../lib/gcc/arm-none-eabi/7.2.1/thumb/v7e-m/fpv4-sp/hard\libgcc.a
LOAD c:/renesas/synergy/e2studio_v7.5.1_ssp_v1.7.5/toolchains/gcc_arm/7.2.1_2017q4/bin/../lib/gcc/arm-none-eabi/7.2.1/../../../../arm-none-eabi/lib/thumb/v7e-m/fpv4-sp/hard\libc_nano.a
LOAD c:/renesas/synergy/e2studio_v7.5.1_ssp_v1.7.5/toolchains/gcc_arm/7.2.1_2017q4/bin/../lib/gcc/arm-none-eabi/7.2.1/../../../../arm-none-eabi/lib/thumb/v7e-m/fpv4-sp/hard\librdimon_nano.a
END GROUP
LOAD c:/renesas/synergy/e2studio_v7.5.1_ssp_v1.7.5/toolchains/gcc_arm/7.2.1_2017q4/bin/../lib/gcc/arm-none-eabi/7.2.1/thumb/v7e-m/fpv4-sp/hard/crtend.o
LOAD c:/renesas/synergy/e2studio_v7.5.1_ssp_v1.7.5/toolchains/gcc_arm/7.2.1_2017q4/bin/../lib/gcc/arm-none-eabi/7.2.1/thumb/v7e-m/fpv4-sp/hard/crtn.o
START GROUP
LOAD c:/renesas/synergy/e2studio_v7.5.1_ssp_v1.7.5/toolchains/gcc_arm/7.2.1_2017q4/bin/../lib/gcc/arm-none-eabi/7.2.1/thumb/v7e-m/fpv4-sp/hard\libgcc.a
LOAD c:/renesas/synergy/e2studio_v7.5.1_ssp_v1.7.5/toolchains/gcc_arm/7.2.1_2017q4/bin/../lib/gcc/arm-none-eabi/7.2.1/../../../../arm-none-eabi/lib/thumb/v7e-m/fpv4-sp/hard\libc.a
LOAD c:/renesas/synergy/e2studio_v7.5.1_ssp_v1.7.5/toolchains/gcc_arm/7.2.1_2017q4/bin/../lib/gcc/arm-none-eabi/7.2.1/../../../../arm-none-eabi/lib/thumb/v7e-m/fpv4-sp/hard\libm.a
LOAD c:/renesas/synergy/e2studio_v7.5.1_ssp_v1.7.5/toolchains/gcc_arm/7.2.1_2017q4/bin/../lib/gcc/arm-none-eabi/7.2.1/../../../../arm-none-eabi/lib/thumb/v7e-m/fpv4-sp/hard\libnosys.a
END GROUP

.text           0x00000000     0x7768
                0x00000000                __ROM_Start = .
 *(.vectors)
 .vectors       0x00000000       0x40 ./synergy/ssp/src/bsp/cmsis/Device/RENESAS/S5D9/Source/startup_S5D9.o
                0x00000000                __Vectors
 *(SORT_BY_NAME(.vector.*))
 .vector.ADC_0_SCAN_END
                0x00000040        0x4 ./src/synergy_gen/thread0.o
                0x00000040                g_vector_ADC_0_SCAN_END
 .vector.GPT_0_COUNTER_OVERFLOW
                0x00000044        0x4 ./src/synergy_gen/thread0.o
                0x00000044                g_vector_GPT_0_COUNTER_OVERFLOW
 .vector.SCI_0_RXI
                0x00000048        0x4 ./src/synergy_gen/thread0.o
                0x00000048                g_vector_SCI_0_RXI
 .vector.SCI_0_TEI
                0x0000004c        0x4 ./src/synergy_gen/thread0.o
                0x0000004c                g_vector_SCI_0_TEI
 .vector.SCI_0_TXI
                0x00000050        0x4 ./src/synergy_gen/thread0.o
                0x00000050                g_vector_SCI_0_TXI
                0x00000054                __Vectors_End = .
                0x00000054                __end__ = .
                0x00000400                . = (__ROM_Start + 0x400)
 *fill*         0x00000054      0x3ac ff
 *(.rom_registers*)
 .rom_registers
                0x00000400       0x3c ./synergy/ssp/src/bsp/mcu/s5d9/bsp_rom_registers.o
                0x00000500                . = (__ROM_Start + 0x500)
 *fill*         0x0000043c       0xc4 ff
                0x00000500                __Vector_Info_Start = .
 *(SORT_BY_NAME(.vector_info.*))
 .vector_info.ADC_0_SCAN_END
                0x00000500        0x8 ./src/synergy_gen/thread0.o
                0x00000500                g_vector_info_ADC_0_SCAN_END
 .vector_info.GPT_0_COUNTER_OVERFLOW
                0x00000508        0x8 ./src/synergy_gen/thread0.o
                0x00000508                g_vector_info_GPT_0_COUNTER_OVERFLOW
 .vector_info.SCI_0_RXI
                0x00000510        0x8 ./src/synergy_gen/thread0.o
                0x00000510                g_vector_info_SCI_0_RXI
 .vector_info.SCI_0_TEI
                0x00000518        0x8 ./src/synergy_gen/thread0.o
                0x00000518                g_vector_info_SCI_0_TEI
 .vector_info.SCI_0_TXI
                0x00000520        0x8 ./src/synergy_gen/thread0.o
                0x00000520                g_vector_info_SCI_0_TXI
                0x00000528                __Vector_Info_End = .
                0x00000528                __Lock_Lookup_Start = .
 *(SORT_BY_NAME(.hw_lock_lookup.*))
 .hw_lock_lookup.ADC_0U_0U
                0x00000528        0x4 ./synergy/ssp/src/bsp/mcu/s5d9/bsp_hw_locks.o
                0x00000528                g_lock_lookup_ADC_0U_0U
 .hw_lock_lookup.ADC_0U_1U
                0x0000052c        0x4 ./synergy/ssp/src/bsp/mcu/s5d9/bsp_hw_locks.o
                0x0000052c                g_lock_lookup_ADC_0U_1U
 .hw_lock_lookup.AGT_0U_0U
                0x00000530        0x4 ./synergy/ssp/src/bsp/mcu/s5d9/bsp_hw_locks.o
                0x00000530                g_lock_lookup_AGT_0U_0U
 .hw_lock_lookup.AGT_0U_1U
                0x00000534        0x4 ./synergy/ssp/src/bsp/mcu/s5d9/bsp_hw_locks.o
                0x00000534                g_lock_lookup_AGT_0U_1U
 .hw_lock_lookup.BSC_0U_1U
                0x00000538        0x4 ./synergy/ssp/src/bsp/mcu/s5d9/bsp_hw_locks.o
                0x00000538                g_lock_lookup_BSC_0U_1U
 .hw_lock_lookup.CAC_0U_0U
                0x0000053c        0x4 ./synergy/ssp/src/bsp/mcu/s5d9/bsp_hw_locks.o
                0x0000053c                g_lock_lookup_CAC_0U_0U
 .hw_lock_lookup.CAN_0U_0U
                0x00000540        0x4 ./synergy/ssp/src/bsp/mcu/s5d9/bsp_hw_locks.o
                0x00000540                g_lock_lookup_CAN_0U_0U
 .hw_lock_lookup.CAN_0U_1U
                0x00000544        0x4 ./synergy/ssp/src/bsp/mcu/s5d9/bsp_hw_locks.o
                0x00000544                g_lock_lookup_CAN_0U_1U
 .hw_lock_lookup.COMP_HS_0U_0U
                0x00000548        0x4 ./synergy/ssp/src/bsp/mcu/s5d9/bsp_hw_locks.o
                0x00000548                g_lock_lookup_COMP_HS_0U_0U
 .hw_lock_lookup.COMP_HS_0U_1U
                0x0000054c        0x4 ./synergy/ssp/src/bsp/mcu/s5d9/bsp_hw_locks.o
                0x0000054c                g_lock_lookup_COMP_HS_0U_1U
 .hw_lock_lookup.COMP_HS_0U_2U
                0x00000550        0x4 ./synergy/ssp/src/bsp/mcu/s5d9/bsp_hw_locks.o
                0x00000550                g_lock_lookup_COMP_HS_0U_2U
 .hw_lock_lookup.COMP_HS_0U_3U
                0x00000554        0x4 ./synergy/ssp/src/bsp/mcu/s5d9/bsp_hw_locks.o
                0x00000554                g_lock_lookup_COMP_HS_0U_3U
 .hw_lock_lookup.COMP_HS_0U_4U
                0x00000558        0x4 ./synergy/ssp/src/bsp/mcu/s5d9/bsp_hw_locks.o
                0x00000558                g_lock_lookup_COMP_HS_0U_4U
 .hw_lock_lookup.COMP_HS_0U_5U
                0x0000055c        0x4 ./synergy/ssp/src/bsp/mcu/s5d9/bsp_hw_locks.o
                0x0000055c                g_lock_lookup_COMP_HS_0U_5U
 .hw_lock_lookup.CRC_0U_0U
                0x00000560        0x4 ./synergy/ssp/src/bsp/mcu/s5d9/bsp_hw_locks.o
                0x00000560                g_lock_lookup_CRC_0U_0U
 .hw_lock_lookup.CTSU_0U_0U
                0x00000564        0x4 ./synergy/ssp/src/bsp/mcu/s5d9/bsp_hw_locks.o
                0x00000564                g_lock_lookup_CTSU_0U_0U
 .hw_lock_lookup.DAAD_0U_0U
                0x00000568        0x4 ./synergy/ssp/src/bsp/mcu/s5d9/bsp_hw_locks.o
                0x00000568                g_lock_lookup_DAAD_0U_0U
 .hw_lock_lookup.DAC_0U_0U
                0x0000056c        0x4 ./synergy/ssp/src/bsp/mcu/s5d9/bsp_hw_locks.o
                0x0000056c                g_lock_lookup_DAC_0U_0U
 .hw_lock_lookup.DAC_0U_1U
                0x00000570        0x4 ./synergy/ssp/src/bsp/mcu/s5d9/bsp_hw_locks.o
                0x00000570                g_lock_lookup_DAC_0U_1U
 .hw_lock_lookup.DMAC_0U_0U
                0x00000574        0x4 ./synergy/ssp/src/bsp/mcu/s5d9/bsp_hw_locks.o
                0x00000574                g_lock_lookup_DMAC_0U_0U
 .hw_lock_lookup.DMAC_0U_1U
                0x00000578        0x4 ./synergy/ssp/src/bsp/mcu/s5d9/bsp_hw_locks.o
                0x00000578                g_lock_lookup_DMAC_0U_1U
 .hw_lock_lookup.DMAC_0U_2U
                0x0000057c        0x4 ./synergy/ssp/src/bsp/mcu/s5d9/bsp_hw_locks.o
                0x0000057c                g_lock_lookup_DMAC_0U_2U
 .hw_lock_lookup.DMAC_0U_3U
                0x00000580        0x4 ./synergy/ssp/src/bsp/mcu/s5d9/bsp_hw_locks.o
                0x00000580                g_lock_lookup_DMAC_0U_3U
 .hw_lock_lookup.DMAC_0U_4U
                0x00000584        0x4 ./synergy/ssp/src/bsp/mcu/s5d9/bsp_hw_locks.o
                0x00000584                g_lock_lookup_DMAC_0U_4U
 .hw_lock_lookup.DMAC_0U_5U
                0x00000588        0x4 ./synergy/ssp/src/bsp/mcu/s5d9/bsp_hw_locks.o
                0x00000588                g_lock_lookup_DMAC_0U_5U
 .hw_lock_lookup.DMAC_0U_6U
                0x0000058c        0x4 ./synergy/ssp/src/bsp/mcu/s5d9/bsp_hw_locks.o
                0x0000058c                g_lock_lookup_DMAC_0U_6U
 .hw_lock_lookup.DMAC_0U_7U
                0x00000590        0x4 ./synergy/ssp/src/bsp/mcu/s5d9/bsp_hw_locks.o
                0x00000590                g_lock_lookup_DMAC_0U_7U
 .hw_lock_lookup.DOC_0U_0U
                0x00000594        0x4 ./synergy/ssp/src/bsp/mcu/s5d9/bsp_hw_locks.o
                0x00000594                g_lock_lookup_DOC_0U_0U
 .hw_lock_lookup.DRW_0U_0U
                0x00000598        0x4 ./synergy/ssp/src/bsp/mcu/s5d9/bsp_hw_locks.o
                0x00000598                g_lock_lookup_DRW_0U_0U
 .hw_lock_lookup.DTC_0U_0U
                0x0000059c        0x4 ./synergy/ssp/src/bsp/mcu/s5d9/bsp_hw_locks.o
                0x0000059c                g_lock_lookup_DTC_0U_0U
 .hw_lock_lookup.ELC_0U_0U
                0x000005a0        0x4 ./synergy/ssp/src/bsp/mcu/s5d9/bsp_hw_locks.o
                0x000005a0                g_lock_lookup_ELC_0U_0U
 .hw_lock_lookup.EPTPC_0U_0U
                0x000005a4        0x4 ./synergy/ssp/src/bsp/mcu/s5d9/bsp_hw_locks.o
                0x000005a4                g_lock_lookup_EPTPC_0U_0U
 .hw_lock_lookup.ETHER_0U_0U
                0x000005a8        0x4 ./synergy/ssp/src/bsp/mcu/s5d9/bsp_hw_locks.o
                0x000005a8                g_lock_lookup_ETHER_0U_0U
 .hw_lock_lookup.ETHER_0U_1U
                0x000005ac        0x4 ./synergy/ssp/src/bsp/mcu/s5d9/bsp_hw_locks.o
                0x000005ac                g_lock_lookup_ETHER_0U_1U
 .hw_lock_lookup.FCU_0U_0U
                0x000005b0        0x4 ./synergy/ssp/src/bsp/mcu/s5d9/bsp_hw_locks.o
                0x000005b0                g_lock_lookup_FCU_0U_0U
 .hw_lock_lookup.GLCDC_0U_0U
                0x000005b4        0x4 ./synergy/ssp/src/bsp/mcu/s5d9/bsp_hw_locks.o
                0x000005b4                g_lock_lookup_GLCDC_0U_0U
 .hw_lock_lookup.GPT_0U_0U
                0x000005b8        0x4 ./synergy/ssp/src/bsp/mcu/s5d9/bsp_hw_locks.o
                0x000005b8                g_lock_lookup_GPT_0U_0U
 .hw_lock_lookup.GPT_0U_10U
                0x000005bc        0x4 ./synergy/ssp/src/bsp/mcu/s5d9/bsp_hw_locks.o
                0x000005bc                g_lock_lookup_GPT_0U_10U
 .hw_lock_lookup.GPT_0U_11U
                0x000005c0        0x4 ./synergy/ssp/src/bsp/mcu/s5d9/bsp_hw_locks.o
                0x000005c0                g_lock_lookup_GPT_0U_11U
 .hw_lock_lookup.GPT_0U_12U
                0x000005c4        0x4 ./synergy/ssp/src/bsp/mcu/s5d9/bsp_hw_locks.o
                0x000005c4                g_lock_lookup_GPT_0U_12U
 .hw_lock_lookup.GPT_0U_13U
                0x000005c8        0x4 ./synergy/ssp/src/bsp/mcu/s5d9/bsp_hw_locks.o
                0x000005c8                g_lock_lookup_GPT_0U_13U
 .hw_lock_lookup.GPT_0U_1U
                0x000005cc        0x4 ./synergy/ssp/src/bsp/mcu/s5d9/bsp_hw_locks.o
                0x000005cc                g_lock_lookup_GPT_0U_1U
 .hw_lock_lookup.GPT_0U_2U
                0x000005d0        0x4 ./synergy/ssp/src/bsp/mcu/s5d9/bsp_hw_locks.o
                0x000005d0                g_lock_lookup_GPT_0U_2U
 .hw_lock_lookup.GPT_0U_3U
                0x000005d4        0x4 ./synergy/ssp/src/bsp/mcu/s5d9/bsp_hw_locks.o
                0x000005d4                g_lock_lookup_GPT_0U_3U
 .hw_lock_lookup.GPT_0U_4U
                0x000005d8        0x4 ./synergy/ssp/src/bsp/mcu/s5d9/bsp_hw_locks.o
                0x000005d8                g_lock_lookup_GPT_0U_4U
 .hw_lock_lookup.GPT_0U_5U
                0x000005dc        0x4 ./synergy/ssp/src/bsp/mcu/s5d9/bsp_hw_locks.o
                0x000005dc                g_lock_lookup_GPT_0U_5U
 .hw_lock_lookup.GPT_0U_6U
                0x000005e0        0x4 ./synergy/ssp/src/bsp/mcu/s5d9/bsp_hw_locks.o
                0x000005e0                g_lock_lookup_GPT_0U_6U
 .hw_lock_lookup.GPT_0U_7U
                0x000005e4        0x4 ./synergy/ssp/src/bsp/mcu/s5d9/bsp_hw_locks.o
                0x000005e4                g_lock_lookup_GPT_0U_7U
 .hw_lock_lookup.GPT_0U_8U
                0x000005e8        0x4 ./synergy/ssp/src/bsp/mcu/s5d9/bsp_hw_locks.o
                0x000005e8                g_lock_lookup_GPT_0U_8U
 .hw_lock_lookup.GPT_0U_9U
                0x000005ec        0x4 ./synergy/ssp/src/bsp/mcu/s5d9/bsp_hw_locks.o
                0x000005ec                g_lock_lookup_GPT_0U_9U
 .hw_lock_lookup.ICU_0U_0U
                0x000005f0        0x4 ./synergy/ssp/src/bsp/mcu/s5d9/bsp_hw_locks.o
                0x000005f0                g_lock_lookup_ICU_0U_0U
 .hw_lock_lookup.ICU_0U_10U
                0x000005f4        0x4 ./synergy/ssp/src/bsp/mcu/s5d9/bsp_hw_locks.o
                0x000005f4                g_lock_lookup_ICU_0U_10U
 .hw_lock_lookup.ICU_0U_11U
                0x000005f8        0x4 ./synergy/ssp/src/bsp/mcu/s5d9/bsp_hw_locks.o
                0x000005f8                g_lock_lookup_ICU_0U_11U
 .hw_lock_lookup.ICU_0U_12U
                0x000005fc        0x4 ./synergy/ssp/src/bsp/mcu/s5d9/bsp_hw_locks.o
                0x000005fc                g_lock_lookup_ICU_0U_12U
 .hw_lock_lookup.ICU_0U_13U
                0x00000600        0x4 ./synergy/ssp/src/bsp/mcu/s5d9/bsp_hw_locks.o
                0x00000600                g_lock_lookup_ICU_0U_13U
 .hw_lock_lookup.ICU_0U_14U
                0x00000604        0x4 ./synergy/ssp/src/bsp/mcu/s5d9/bsp_hw_locks.o
                0x00000604                g_lock_lookup_ICU_0U_14U
 .hw_lock_lookup.ICU_0U_15U
                0x00000608        0x4 ./synergy/ssp/src/bsp/mcu/s5d9/bsp_hw_locks.o
                0x00000608                g_lock_lookup_ICU_0U_15U
 .hw_lock_lookup.ICU_0U_1U
                0x0000060c        0x4 ./synergy/ssp/src/bsp/mcu/s5d9/bsp_hw_locks.o
                0x0000060c                g_lock_lookup_ICU_0U_1U
 .hw_lock_lookup.ICU_0U_2U
                0x00000610        0x4 ./synergy/ssp/src/bsp/mcu/s5d9/bsp_hw_locks.o
                0x00000610                g_lock_lookup_ICU_0U_2U
 .hw_lock_lookup.ICU_0U_3U
                0x00000614        0x4 ./synergy/ssp/src/bsp/mcu/s5d9/bsp_hw_locks.o
                0x00000614                g_lock_lookup_ICU_0U_3U
 .hw_lock_lookup.ICU_0U_4U
                0x00000618        0x4 ./synergy/ssp/src/bsp/mcu/s5d9/bsp_hw_locks.o
                0x00000618                g_lock_lookup_ICU_0U_4U
 .hw_lock_lookup.ICU_0U_5U
                0x0000061c        0x4 ./synergy/ssp/src/bsp/mcu/s5d9/bsp_hw_locks.o
                0x0000061c                g_lock_lookup_ICU_0U_5U
 .hw_lock_lookup.ICU_0U_6U
                0x00000620        0x4 ./synergy/ssp/src/bsp/mcu/s5d9/bsp_hw_locks.o
                0x00000620                g_lock_lookup_ICU_0U_6U
 .hw_lock_lookup.ICU_0U_7U
                0x00000624        0x4 ./synergy/ssp/src/bsp/mcu/s5d9/bsp_hw_locks.o
                0x00000624                g_lock_lookup_ICU_0U_7U
 .hw_lock_lookup.ICU_0U_8U
                0x00000628        0x4 ./synergy/ssp/src/bsp/mcu/s5d9/bsp_hw_locks.o
                0x00000628                g_lock_lookup_ICU_0U_8U
 .hw_lock_lookup.ICU_0U_9U
                0x0000062c        0x4 ./synergy/ssp/src/bsp/mcu/s5d9/bsp_hw_locks.o
                0x0000062c                g_lock_lookup_ICU_0U_9U
 .hw_lock_lookup.IIC_0U_0U
                0x00000630        0x4 ./synergy/ssp/src/bsp/mcu/s5d9/bsp_hw_locks.o
                0x00000630                g_lock_lookup_IIC_0U_0U
 .hw_lock_lookup.IIC_0U_1U
                0x00000634        0x4 ./synergy/ssp/src/bsp/mcu/s5d9/bsp_hw_locks.o
                0x00000634                g_lock_lookup_IIC_0U_1U
 .hw_lock_lookup.IIC_0U_2U
                0x00000638        0x4 ./synergy/ssp/src/bsp/mcu/s5d9/bsp_hw_locks.o
                0x00000638                g_lock_lookup_IIC_0U_2U
 .hw_lock_lookup.IRDA_0U_0U
                0x0000063c        0x4 ./synergy/ssp/src/bsp/mcu/s5d9/bsp_hw_locks.o
                0x0000063c                g_lock_lookup_IRDA_0U_0U
 .hw_lock_lookup.IWDT_0U_0U
                0x00000640        0x4 ./synergy/ssp/src/bsp/mcu/s5d9/bsp_hw_locks.o
                0x00000640                g_lock_lookup_IWDT_0U_0U
 .hw_lock_lookup.JPEG_0U_0U
                0x00000644        0x4 ./synergy/ssp/src/bsp/mcu/s5d9/bsp_hw_locks.o
                0x00000644                g_lock_lookup_JPEG_0U_0U
 .hw_lock_lookup.KEY_0U_0U
                0x00000648        0x4 ./synergy/ssp/src/bsp/mcu/s5d9/bsp_hw_locks.o
                0x00000648                g_lock_lookup_KEY_0U_0U
 .hw_lock_lookup.LPM_1U_0U
                0x0000064c        0x4 ./synergy/ssp/src/bsp/mcu/s5d9/bsp_hw_locks.o
                0x0000064c                g_lock_lookup_LPM_1U_0U
 .hw_lock_lookup.LVD_0U_0U
                0x00000650        0x4 ./synergy/ssp/src/bsp/mcu/s5d9/bsp_hw_locks.o
                0x00000650                g_lock_lookup_LVD_0U_0U
 .hw_lock_lookup.LVD_0U_1U
                0x00000654        0x4 ./synergy/ssp/src/bsp/mcu/s5d9/bsp_hw_locks.o
                0x00000654                g_lock_lookup_LVD_0U_1U
 .hw_lock_lookup.MMF_0U_0U
                0x00000658        0x4 ./synergy/ssp/src/bsp/mcu/s5d9/bsp_hw_locks.o
                0x00000658                g_lock_lookup_MMF_0U_0U
 .hw_lock_lookup.MPU_0U_0U
                0x0000065c        0x4 ./synergy/ssp/src/bsp/mcu/s5d9/bsp_hw_locks.o
                0x0000065c                g_lock_lookup_MPU_0U_0U
 .hw_lock_lookup.OPS_0U_0U
                0x00000660        0x4 ./synergy/ssp/src/bsp/mcu/s5d9/bsp_hw_locks.o
                0x00000660                g_lock_lookup_OPS_0U_0U
 .hw_lock_lookup.PDC_0U_0U
                0x00000664        0x4 ./synergy/ssp/src/bsp/mcu/s5d9/bsp_hw_locks.o
                0x00000664                g_lock_lookup_PDC_0U_0U
 .hw_lock_lookup.POEG_0U_0U
                0x00000668        0x4 ./synergy/ssp/src/bsp/mcu/s5d9/bsp_hw_locks.o
                0x00000668                g_lock_lookup_POEG_0U_0U
 .hw_lock_lookup.POEG_0U_1U
                0x0000066c        0x4 ./synergy/ssp/src/bsp/mcu/s5d9/bsp_hw_locks.o
                0x0000066c                g_lock_lookup_POEG_0U_1U
 .hw_lock_lookup.POEG_0U_2U
                0x00000670        0x4 ./synergy/ssp/src/bsp/mcu/s5d9/bsp_hw_locks.o
                0x00000670                g_lock_lookup_POEG_0U_2U
 .hw_lock_lookup.POEG_0U_3U
                0x00000674        0x4 ./synergy/ssp/src/bsp/mcu/s5d9/bsp_hw_locks.o
                0x00000674                g_lock_lookup_POEG_0U_3U
 .hw_lock_lookup.QSPI_0U_0U
                0x00000678        0x4 ./synergy/ssp/src/bsp/mcu/s5d9/bsp_hw_locks.o
                0x00000678                g_lock_lookup_QSPI_0U_0U
 .hw_lock_lookup.RTC_0U_0U
                0x0000067c        0x4 ./synergy/ssp/src/bsp/mcu/s5d9/bsp_hw_locks.o
                0x0000067c                g_lock_lookup_RTC_0U_0U
 .hw_lock_lookup.SCE_0U_0U
                0x00000680        0x4 ./synergy/ssp/src/bsp/mcu/s5d9/bsp_hw_locks.o
                0x00000680                g_lock_lookup_SCE_0U_0U
 .hw_lock_lookup.SCI_0U_0U
                0x00000684        0x4 ./synergy/ssp/src/bsp/mcu/s5d9/bsp_hw_locks.o
                0x00000684                g_lock_lookup_SCI_0U_0U
 .hw_lock_lookup.SCI_0U_1U
                0x00000688        0x4 ./synergy/ssp/src/bsp/mcu/s5d9/bsp_hw_locks.o
                0x00000688                g_lock_lookup_SCI_0U_1U
 .hw_lock_lookup.SCI_0U_2U
                0x0000068c        0x4 ./synergy/ssp/src/bsp/mcu/s5d9/bsp_hw_locks.o
                0x0000068c                g_lock_lookup_SCI_0U_2U
 .hw_lock_lookup.SCI_0U_3U
                0x00000690        0x4 ./synergy/ssp/src/bsp/mcu/s5d9/bsp_hw_locks.o
                0x00000690                g_lock_lookup_SCI_0U_3U
 .hw_lock_lookup.SCI_0U_4U
                0x00000694        0x4 ./synergy/ssp/src/bsp/mcu/s5d9/bsp_hw_locks.o
                0x00000694                g_lock_lookup_SCI_0U_4U
 .hw_lock_lookup.SCI_0U_5U
                0x00000698        0x4 ./synergy/ssp/src/bsp/mcu/s5d9/bsp_hw_locks.o
                0x00000698                g_lock_lookup_SCI_0U_5U
 .hw_lock_lookup.SCI_0U_6U
                0x0000069c        0x4 ./synergy/ssp/src/bsp/mcu/s5d9/bsp_hw_locks.o
                0x0000069c                g_lock_lookup_SCI_0U_6U
 .hw_lock_lookup.SCI_0U_7U
                0x000006a0        0x4 ./synergy/ssp/src/bsp/mcu/s5d9/bsp_hw_locks.o
                0x000006a0                g_lock_lookup_SCI_0U_7U
 .hw_lock_lookup.SCI_0U_8U
                0x000006a4        0x4 ./synergy/ssp/src/bsp/mcu/s5d9/bsp_hw_locks.o
                0x000006a4                g_lock_lookup_SCI_0U_8U
 .hw_lock_lookup.SCI_0U_9U
                0x000006a8        0x4 ./synergy/ssp/src/bsp/mcu/s5d9/bsp_hw_locks.o
                0x000006a8                g_lock_lookup_SCI_0U_9U
 .hw_lock_lookup.SDHIMMC_0U_0U
                0x000006ac        0x4 ./synergy/ssp/src/bsp/mcu/s5d9/bsp_hw_locks.o
                0x000006ac                g_lock_lookup_SDHIMMC_0U_0U
 .hw_lock_lookup.SDHIMMC_0U_1U
                0x000006b0        0x4 ./synergy/ssp/src/bsp/mcu/s5d9/bsp_hw_locks.o
                0x000006b0                g_lock_lookup_SDHIMMC_0U_1U
 .hw_lock_lookup.SPI_0U_0U
                0x000006b4        0x4 ./synergy/ssp/src/bsp/mcu/s5d9/bsp_hw_locks.o
                0x000006b4                g_lock_lookup_SPI_0U_0U
 .hw_lock_lookup.SPI_0U_1U
                0x000006b8        0x4 ./synergy/ssp/src/bsp/mcu/s5d9/bsp_hw_locks.o
                0x000006b8                g_lock_lookup_SPI_0U_1U
 .hw_lock_lookup.SRC_0U_0U
                0x000006bc        0x4 ./synergy/ssp/src/bsp/mcu/s5d9/bsp_hw_locks.o
                0x000006bc                g_lock_lookup_SRC_0U_0U
 .hw_lock_lookup.SSI_0U_0U
                0x000006c0        0x4 ./synergy/ssp/src/bsp/mcu/s5d9/bsp_hw_locks.o
                0x000006c0                g_lock_lookup_SSI_0U_0U
 .hw_lock_lookup.SSI_0U_1U
                0x000006c4        0x4 ./synergy/ssp/src/bsp/mcu/s5d9/bsp_hw_locks.o
                0x000006c4                g_lock_lookup_SSI_0U_1U
 .hw_lock_lookup.TSN_0U_0U
                0x000006c8        0x4 ./synergy/ssp/src/bsp/mcu/s5d9/bsp_hw_locks.o
                0x000006c8                g_lock_lookup_TSN_0U_0U
 .hw_lock_lookup.USB_0U_0U
                0x000006cc        0x4 ./synergy/ssp/src/bsp/mcu/s5d9/bsp_hw_locks.o
                0x000006cc                g_lock_lookup_USB_0U_0U
 .hw_lock_lookup.USB_1U_0U
                0x000006d0        0x4 ./synergy/ssp/src/bsp/mcu/s5d9/bsp_hw_locks.o
                0x000006d0                g_lock_lookup_USB_1U_0U
 .hw_lock_lookup.WDT_0U_0U
                0x000006d4        0x4 ./synergy/ssp/src/bsp/mcu/s5d9/bsp_hw_locks.o
                0x000006d4                g_lock_lookup_WDT_0U_0U
                0x000006d8                __Lock_Lookup_End = .
 *(.text*)
 .text          0x000006d8       0x40 c:/renesas/synergy/e2studio_v7.5.1_ssp_v1.7.5/toolchains/gcc_arm/7.2.1_2017q4/bin/../lib/gcc/arm-none-eabi/7.2.1/thumb/v7e-m/fpv4-sp/hard/crtbegin.o
 .text.r_sci_uart_rs485_de_pin_cfg
                0x00000718       0x38 ./synergy/ssp/src/driver/r_sci_uart/r_sci_uart.o
 .text.r_sci_uart_write_no_transfer
                0x00000750       0x50 ./synergy/ssp/src/driver/r_sci_uart/r_sci_uart.o
                0x00000750                r_sci_uart_write_no_transfer
 .text.r_sci_uart_read_data
                0x000007a0       0x30 ./synergy/ssp/src/driver/r_sci_uart/r_sci_uart.o
                0x000007a0                r_sci_uart_read_data
 .text.r_sci_uart_rxi_read_no_transfer_eventset
                0x000007d0       0x74 ./synergy/ssp/src/driver/r_sci_uart/r_sci_uart.o
                0x000007d0                r_sci_uart_rxi_read_no_transfer_eventset
 .text.r_sci_uart_rxi_read_no_transfer
                0x00000844       0x74 ./synergy/ssp/src/driver/r_sci_uart/r_sci_uart.o
                0x00000844                r_sci_uart_rxi_read_no_transfer
 .text.sci_uart_txi_isr
                0x000008b8      0x12c ./synergy/ssp/src/driver/r_sci_uart/r_sci_uart.o
                0x000008b8                sci_uart_txi_isr
 .text.sci_uart_rxi_isr
                0x000009e4       0x74 ./synergy/ssp/src/driver/r_sci_uart/r_sci_uart.o
                0x000009e4                sci_uart_rxi_isr
 .text.sci_uart_tei_isr
                0x00000a58       0x98 ./synergy/ssp/src/driver/r_sci_uart/r_sci_uart.o
                0x00000a58                sci_uart_tei_isr
 .text.R_IOPORT_PinRead
                0x00000af0       0x4c ./synergy/ssp/src/driver/r_ioport/r_ioport.o
                0x00000af0                R_IOPORT_PinRead
 .text.R_IOPORT_PortRead
                0x00000b3c       0x28 ./synergy/ssp/src/driver/r_ioport/r_ioport.o
                0x00000b3c                R_IOPORT_PortRead
 .text.R_IOPORT_PortEventInputRead
                0x00000b64       0x28 ./synergy/ssp/src/driver/r_ioport/r_ioport.o
                0x00000b64                R_IOPORT_PortEventInputRead
 .text.R_IOPORT_PinEventInputRead
                0x00000b8c       0x54 ./synergy/ssp/src/driver/r_ioport/r_ioport.o
                0x00000b8c                R_IOPORT_PinEventInputRead
 .text.R_IOPORT_PortEventOutputWrite
                0x00000be0       0x38 ./synergy/ssp/src/driver/r_ioport/r_ioport.o
                0x00000be0                R_IOPORT_PortEventOutputWrite
 .text.R_IOPORT_PinEventOutputWrite
                0x00000c18       0x58 ./synergy/ssp/src/driver/r_ioport/r_ioport.o
                0x00000c18                R_IOPORT_PinEventOutputWrite
 .text.R_IOPORT_VersionGet
                0x00000c70       0x14 ./synergy/ssp/src/driver/r_ioport/r_ioport.o
                0x00000c70                R_IOPORT_VersionGet
 .text.R_IOPORT_PinWrite
                0x00000c84       0x54 ./synergy/ssp/src/driver/r_ioport/r_ioport.o
                0x00000c84                R_IOPORT_PinWrite
 .text.R_IOPORT_PinDirectionSet
                0x00000cd8       0xd0 ./synergy/ssp/src/driver/r_ioport/r_ioport.o
                0x00000cd8                R_IOPORT_PinDirectionSet
 .text.R_IOPORT_PortWrite
                0x00000da8       0x38 ./synergy/ssp/src/driver/r_ioport/r_ioport.o
                0x00000da8                R_IOPORT_PortWrite
 .text.R_IOPORT_PortDirectionSet
                0x00000de0       0x40 ./synergy/ssp/src/driver/r_ioport/r_ioport.o
                0x00000de0                R_IOPORT_PortDirectionSet
 .text.bsp_vbatt_init.isra.4
                0x00000e20       0x8c ./synergy/ssp/src/driver/r_ioport/r_ioport.o
 .text.R_IOPORT_EthernetModeCfg
                0x00000eac       0x54 ./synergy/ssp/src/driver/r_ioport/r_ioport.o
                0x00000eac                R_IOPORT_EthernetModeCfg
 .text.R_IOPORT_PinsCfg.part.5
                0x00000f00       0xc0 ./synergy/ssp/src/driver/r_ioport/r_ioport.o
 .text.R_IOPORT_PinsCfg
                0x00000fc0       0x10 ./synergy/ssp/src/driver/r_ioport/r_ioport.o
                0x00000fc0                R_IOPORT_PinsCfg
 .text.R_IOPORT_Init
                0x00000fd0       0x88 ./synergy/ssp/src/driver/r_ioport/r_ioport.o
                0x00000fd0                R_IOPORT_Init
 .text.R_IOPORT_PinCfg
                0x00001058       0xcc ./synergy/ssp/src/driver/r_ioport/r_ioport.o
                0x00001058                R_IOPORT_PinCfg
 .text.gpt_counter_overflow_isr
                0x00001124       0x7c ./synergy/ssp/src/driver/r_gpt/r_gpt.o
                0x00001124                gpt_counter_overflow_isr
 .text.R_FMI_ProductInfoGet
                0x000011a0       0x30 ./synergy/ssp/src/driver/r_fmi/r_fmi.o
 .text.R_FMI_VersionGet
                0x000011d0       0x14 ./synergy/ssp/src/driver/r_fmi/r_fmi.o
 .text.R_FMI_Init
                0x000011e4       0x6c ./synergy/ssp/src/driver/r_fmi/r_fmi.o
 .text.R_FMI_UniqueIdGet
                0x00001250       0x40 ./synergy/ssp/src/driver/r_fmi/r_fmi.o
 .text.R_FMI_EventInfoGet
                0x00001290       0x84 ./synergy/ssp/src/driver/r_fmi/r_fmi.o
 .text.R_FMI_FeatureGet
                0x00001314      0x244 ./synergy/ssp/src/driver/r_fmi/r_fmi.o
 .text.R_ELC_LinkSet
                0x00001558       0x14 ./synergy/ssp/src/driver/r_elc/r_elc.o
                0x00001558                R_ELC_LinkSet
 .text.R_ELC_LinkBreak
                0x0000156c       0x14 ./synergy/ssp/src/driver/r_elc/r_elc.o
                0x0000156c                R_ELC_LinkBreak
 .text.R_ELC_Enable
                0x00001580       0x14 ./synergy/ssp/src/driver/r_elc/r_elc.o
                0x00001580                R_ELC_Enable
 .text.R_ELC_Disable
                0x00001594       0x14 ./synergy/ssp/src/driver/r_elc/r_elc.o
                0x00001594                R_ELC_Disable
 .text.R_ELC_VersionGet
                0x000015a8       0x14 ./synergy/ssp/src/driver/r_elc/r_elc.o
                0x000015a8                R_ELC_VersionGet
 .text.R_ELC_SoftwareEventGenerate
                0x000015bc       0x30 ./synergy/ssp/src/driver/r_elc/r_elc.o
                0x000015bc                R_ELC_SoftwareEventGenerate
 .text.R_ELC_Init
                0x000015ec       0x7c ./synergy/ssp/src/driver/r_elc/r_elc.o
                0x000015ec                R_ELC_Init
 .text.R_CGC_LCDClockCfg
                0x00001668        0x4 ./synergy/ssp/src/driver/r_cgc/r_cgc.o
                0x00001668                R_CGC_LCDClockCfg
 .text.R_CGC_LCDClockEnable
                0x0000166c        0x4 ./synergy/ssp/src/driver/r_cgc/r_cgc.o
                0x0000166c                R_CGC_LCDClockEnable
 .text.R_CGC_VersionGet
                0x00001670       0x14 ./synergy/ssp/src/driver/r_cgc/r_cgc.o
                0x00001670                R_CGC_VersionGet
 .text.r_cgc_init_pllfreq
                0x00001684       0xd8 ./synergy/ssp/src/driver/r_cgc/r_cgc.o
 .text.R_CGC_SystemClockFreqGet
                0x0000175c       0xb4 ./synergy/ssp/src/driver/r_cgc/r_cgc.o
                0x0000175c                R_CGC_SystemClockFreqGet
 .text.r_cgc_system_dividers_set
                0x00001810       0x44 ./synergy/ssp/src/driver/r_cgc/r_cgc.o
 .text.R_CGC_OscStopStatusClear
                0x00001854       0x64 ./synergy/ssp/src/driver/r_cgc/r_cgc.o
                0x00001854                R_CGC_OscStopStatusClear
 .text.R_CGC_BusClockOutCfg
                0x000018b8       0x28 ./synergy/ssp/src/driver/r_cgc/r_cgc.o
                0x000018b8                R_CGC_BusClockOutCfg
 .text.R_CGC_BusClockOutEnable
                0x000018e0       0x28 ./synergy/ssp/src/driver/r_cgc/r_cgc.o
                0x000018e0                R_CGC_BusClockOutEnable
 .text.R_CGC_BusClockOutDisable
                0x00001908       0x28 ./synergy/ssp/src/driver/r_cgc/r_cgc.o
                0x00001908                R_CGC_BusClockOutDisable
 .text.R_CGC_ClockOutEnable
                0x00001930       0x28 ./synergy/ssp/src/driver/r_cgc/r_cgc.o
                0x00001930                R_CGC_ClockOutEnable
 .text.R_CGC_ClockOutDisable
                0x00001958       0x28 ./synergy/ssp/src/driver/r_cgc/r_cgc.o
                0x00001958                R_CGC_ClockOutDisable
 .text.R_CGC_SDRAMClockOutEnable
                0x00001980       0x28 ./synergy/ssp/src/driver/r_cgc/r_cgc.o
                0x00001980                R_CGC_SDRAMClockOutEnable
 .text.R_CGC_SDRAMClockOutDisable
                0x000019a8       0x28 ./synergy/ssp/src/driver/r_cgc/r_cgc.o
                0x000019a8                R_CGC_SDRAMClockOutDisable
 .text.R_CGC_USBClockCfg
                0x000019d0       0x28 ./synergy/ssp/src/driver/r_cgc/r_cgc.o
                0x000019d0                R_CGC_USBClockCfg
 .text.r_cgc_check_dividers
                0x000019f8       0x34 ./synergy/ssp/src/driver/r_cgc/r_cgc.o
 .text.R_CGC_SystickUpdate.part.6
                0x00001a2c       0x84 ./synergy/ssp/src/driver/r_cgc/r_cgc.o
 .text.R_CGC_SystickUpdate
                0x00001ab0        0xc ./synergy/ssp/src/driver/r_cgc/r_cgc.o
                0x00001ab0                R_CGC_SystickUpdate
 .text.R_CGC_ClockOutCfg
                0x00001abc       0x5c ./synergy/ssp/src/driver/r_cgc/r_cgc.o
                0x00001abc                R_CGC_ClockOutCfg
 .text.R_CGC_OscStopDetect
                0x00001b18      0x118 ./synergy/ssp/src/driver/r_cgc/r_cgc.o
                0x00001b18                R_CGC_OscStopDetect
 .text.r_cgc_subclock_drive_set.constprop.16
                0x00001c30       0x34 ./synergy/ssp/src/driver/r_cgc/r_cgc.o
 .text.R_CGC_SDADCClockCfg
                0x00001c64        0x4 ./synergy/ssp/src/driver/r_cgc/r_cgc.o
                0x00001c64                R_CGC_SDADCClockCfg
 .text.R_CGC_LCDClockDisable
                0x00001c68        0x4 ./synergy/ssp/src/driver/r_cgc/r_cgc.o
                0x00001c68                R_CGC_LCDClockDisable
 .text.R_CGC_SDADCClockEnable
                0x00001c6c        0x4 ./synergy/ssp/src/driver/r_cgc/r_cgc.o
                0x00001c6c                R_CGC_SDADCClockEnable
 .text.R_CGC_SDADCClockDisable
                0x00001c70        0x4 ./synergy/ssp/src/driver/r_cgc/r_cgc.o
                0x00001c70                R_CGC_SDADCClockDisable
 .text.R_CGC_SystemClockGet
                0x00001c74       0x58 ./synergy/ssp/src/driver/r_cgc/r_cgc.o
                0x00001c74                R_CGC_SystemClockGet
 .text.r_cgc_clock_run_state_get
                0x00001ccc       0x68 ./synergy/ssp/src/driver/r_cgc/r_cgc.o
                0x00001ccc                r_cgc_clock_run_state_get
 .text.r_cgc_wait_to_complete
                0x00001d34       0x44 ./synergy/ssp/src/driver/r_cgc/r_cgc.o
 .text.R_CGC_Init
                0x00001d78       0xe0 ./synergy/ssp/src/driver/r_cgc/r_cgc.o
                0x00001d78                R_CGC_Init
 .text.R_CGC_ClockStop
                0x00001e58      0x154 ./synergy/ssp/src/driver/r_cgc/r_cgc.o
                0x00001e58                R_CGC_ClockStop
 .text.R_CGC_ClockCheck
                0x00001fac       0x8c ./synergy/ssp/src/driver/r_cgc/r_cgc.o
                0x00001fac                R_CGC_ClockCheck
 .text.r_cgc_stabilization_wait
                0x00002038       0x30 ./synergy/ssp/src/driver/r_cgc/r_cgc.o
 .text.r_cgc_operating_hw_modeset
                0x00002068       0xfc ./synergy/ssp/src/driver/r_cgc/r_cgc.o
                0x00002068                r_cgc_operating_hw_modeset
 .text.r_cgc_operating_mode_set
                0x00002164       0x50 ./synergy/ssp/src/driver/r_cgc/r_cgc.o
 .text.R_CGC_ClockStart
                0x000021b4      0x358 ./synergy/ssp/src/driver/r_cgc/r_cgc.o
                0x000021b4                R_CGC_ClockStart
 .text.r_cgc_clock_start_stop
                0x0000250c       0x54 ./synergy/ssp/src/driver/r_cgc/r_cgc.o
 .text.R_CGC_SystemClockSet
                0x00002560      0x1b8 ./synergy/ssp/src/driver/r_cgc/r_cgc.o
                0x00002560                R_CGC_SystemClockSet
 .text.R_CGC_ClocksCfg
                0x00002718      0x14c ./synergy/ssp/src/driver/r_cgc/r_cgc.o
                0x00002718                R_CGC_ClocksCfg
 .text.R_ADC_VersionGet
                0x00002864       0x14 ./synergy/ssp/src/driver/r_adc/r_adc.o
                0x00002864                R_ADC_VersionGet
 .text.R_ADC_OffsetSet
                0x00002878        0x4 ./synergy/ssp/src/driver/r_adc/r_adc.o
                0x00002878                R_ADC_OffsetSet
 .text.R_ADC_ScanStart
                0x0000287c       0x44 ./synergy/ssp/src/driver/r_adc/r_adc.o
                0x0000287c                R_ADC_ScanStart
 .text.R_ADC_ScanStop
                0x000028c0       0x34 ./synergy/ssp/src/driver/r_adc/r_adc.o
                0x000028c0                R_ADC_ScanStop
 .text.R_ADC_CheckScanDone
                0x000028f4       0x28 ./synergy/ssp/src/driver/r_adc/r_adc.o
                0x000028f4                R_ADC_CheckScanDone
 .text.R_ADC_Read
                0x0000291c       0x68 ./synergy/ssp/src/driver/r_adc/r_adc.o
                0x0000291c                R_ADC_Read
 .text.R_ADC_Read32
                0x00002984       0x38 ./synergy/ssp/src/driver/r_adc/r_adc.o
                0x00002984                R_ADC_Read32
 .text.R_ADC_SetSampleStateCount
                0x000029bc       0x78 ./synergy/ssp/src/driver/r_adc/r_adc.o
                0x000029bc                R_ADC_SetSampleStateCount
 .text.R_ADC_InfoGet
                0x00002a34       0xe4 ./synergy/ssp/src/driver/r_adc/r_adc.o
                0x00002a34                R_ADC_InfoGet
 .text.R_ADC_Calibrate
                0x00002b18       0x48 ./synergy/ssp/src/driver/r_adc/r_adc.o
                0x00002b18                R_ADC_Calibrate
 .text.r_adc_close_sub
                0x00002b60       0x68 ./synergy/ssp/src/driver/r_adc/r_adc.o
 .text.r_adc_open_configure_pga_settings.part.31
                0x00002bc8      0x1f0 ./synergy/ssp/src/driver/r_adc/r_adc.o
 .text.R_ADC_Close
                0x00002db8      0x104 ./synergy/ssp/src/driver/r_adc/r_adc.o
                0x00002db8                R_ADC_Close
 .text.R_ADC_Open
                0x00002ebc      0x4c8 ./synergy/ssp/src/driver/r_adc/r_adc.o
                0x00002ebc                R_ADC_Open
 .text.R_ADC_ScanConfigure
                0x00003384      0x434 ./synergy/ssp/src/driver/r_adc/r_adc.o
                0x00003384                R_ADC_ScanConfigure
 .text.adc_scan_end_isr
                0x000037b8       0x58 ./synergy/ssp/src/driver/r_adc/r_adc.o
                0x000037b8                adc_scan_end_isr
 .text.R_BSP_CacheOff
                0x00003810       0x28 ./synergy/ssp/src/bsp/mcu/s5d9/bsp_cache.o
                0x00003810                R_BSP_CacheOff
 .text.R_BSP_CacheSet
                0x00003838       0x48 ./synergy/ssp/src/bsp/mcu/s5d9/bsp_cache.o
                0x00003838                R_BSP_CacheSet
 .text.bsp_clock_init
                0x00003880       0xac ./synergy/ssp/src/bsp/mcu/s5d9/bsp_clocks.o
                0x00003880                bsp_clock_init
 .text.bsp_cpu_clock_get
                0x0000392c       0x20 ./synergy/ssp/src/bsp/mcu/s5d9/bsp_clocks.o
                0x0000392c                bsp_cpu_clock_get
 .text.bsp_clock_set_callback
                0x0000394c       0xdc ./synergy/ssp/src/bsp/mcu/s5d9/bsp_clocks.o
                0x0000394c                bsp_clock_set_callback
 .text.R_BSP_FeatureAdcGet
                0x00003a28       0x34 ./synergy/ssp/src/bsp/mcu/s5d9/bsp_feature.o
                0x00003a28                R_BSP_FeatureAdcGet
 .text.R_BSP_FeatureIoportGet
                0x00003a5c        0xc ./synergy/ssp/src/bsp/mcu/s5d9/bsp_feature.o
                0x00003a5c                R_BSP_FeatureIoportGet
 .text.R_BSP_FeatureCgcGet
                0x00003a68        0xc ./synergy/ssp/src/bsp/mcu/s5d9/bsp_feature.o
                0x00003a68                R_BSP_FeatureCgcGet
 .text.bsp_group_interrupt_open
                0x00003a74       0x18 ./synergy/ssp/src/bsp/mcu/s5d9/bsp_group_irq.o
                0x00003a74                bsp_group_interrupt_open
 .text.R_BSP_GroupIrqWrite
                0x00003a8c       0x10 ./synergy/ssp/src/bsp/mcu/s5d9/bsp_group_irq.o
                0x00003a8c                R_BSP_GroupIrqWrite
 .text.NMI_Handler
                0x00003a9c      0x1c8 ./synergy/ssp/src/bsp/mcu/s5d9/bsp_group_irq.o
                0x00003a9c                NMI_Handler
 .text.r_bsp_get_mstp_mask
                0x00003c64       0x4c ./synergy/ssp/src/bsp/mcu/s5d9/bsp_module_stop.o
 .text.r_bsp_module_start_stop
                0x00003cb0       0x6c ./synergy/ssp/src/bsp/mcu/s5d9/bsp_module_stop.o
 .text.R_BSP_ModuleStop
                0x00003d1c        0x8 ./synergy/ssp/src/bsp/mcu/s5d9/bsp_module_stop.o
                0x00003d1c                R_BSP_ModuleStop
 .text.R_BSP_ModuleStart
                0x00003d24        0x8 ./synergy/ssp/src/bsp/mcu/s5d9/bsp_module_stop.o
                0x00003d24                R_BSP_ModuleStart
 .text.R_BSP_LedsGet
                0x00003d2c       0x20 ./synergy/ssp/src/bsp/mcu/all/bsp_common_leds.o
                0x00003d2c                R_BSP_LedsGet
 .text.software_delay_loop
                0x00003d4c        0xc ./synergy/ssp/src/bsp/mcu/all/bsp_delay.o
 .text.R_BSP_SoftwareDelay
                0x00003d58       0x60 ./synergy/ssp/src/bsp/mcu/all/bsp_delay.o
                0x00003d58                R_BSP_SoftwareDelay
 .text.R_BSP_IrqStatusClear
                0x00003db8       0x18 ./synergy/ssp/src/bsp/mcu/all/bsp_irq.o
                0x00003db8                R_BSP_IrqStatusClear
 .text.bsp_irq_cfg
                0x00003dd0       0x40 ./synergy/ssp/src/bsp/mcu/all/bsp_irq.o
                0x00003dd0                bsp_irq_cfg
 .text.R_BSP_HardwareLock
                0x00003e10       0x68 ./synergy/ssp/src/bsp/mcu/all/bsp_locking.o
                0x00003e10                R_BSP_HardwareLock
 .text.R_BSP_HardwareUnlock
                0x00003e78       0x4c ./synergy/ssp/src/bsp/mcu/all/bsp_locking.o
                0x00003e78                R_BSP_HardwareUnlock
 .text.bsp_init_hardware_locks
                0x00003ec4       0x68 ./synergy/ssp/src/bsp/mcu/all/bsp_locking.o
                0x00003ec4                bsp_init_hardware_locks
 .text.R_BSP_RegisterProtectEnable
                0x00003f2c       0x60 ./synergy/ssp/src/bsp/mcu/all/bsp_register_protection.o
                0x00003f2c                R_BSP_RegisterProtectEnable
 .text.R_BSP_RegisterProtectDisable
                0x00003f8c       0x4c ./synergy/ssp/src/bsp/mcu/all/bsp_register_protection.o
                0x00003f8c                R_BSP_RegisterProtectDisable
 .text.bsp_register_protect_open
                0x00003fd8       0x10 ./synergy/ssp/src/bsp/mcu/all/bsp_register_protection.o
                0x00003fd8                bsp_register_protect_open
 .text._sbrk    0x00003fe8       0x40 ./synergy/ssp/src/bsp/mcu/all/bsp_sbrk.o
                0x00003fe8                _sbrk
 .text.Default_Handler
                0x00004028        0x4 ./synergy/ssp/src/bsp/cmsis/Device/RENESAS/S5D9/Source/startup_S5D9.o
                0x00004028                HardFault_Handler
                0x00004028                UsageFault_Handler
                0x00004028                Default_Handler
                0x00004028                MemManage_Handler
                0x00004028                SVC_Handler
                0x00004028                BusFault_Handler
                0x00004028                DebugMon_Handler
 .text.Reset_Handler
                0x0000402c        0xc ./synergy/ssp/src/bsp/cmsis/Device/RENESAS/S5D9/Source/startup_S5D9.o
                0x0000402c                Reset_Handler
 .text.R_BSP_WarmStart
                0x00004038        0x4 ./synergy/ssp/src/bsp/cmsis/Device/RENESAS/S5D9/Source/system_S5D9.o
                0x00004038                R_BSP_WarmStart
 *fill*         0x0000403c        0x4 ff
 .text.SystemInit
                0x00004040      0x160 ./synergy/ssp/src/bsp/cmsis/Device/RENESAS/S5D9/Source/system_S5D9.o
                0x00004040                SystemInit
 .text.bsp_init
                0x000041a0        0x4 ./synergy/board/s5d9_pk/bsp_init.o
                0x000041a0                bsp_init
 .text.bsp_qspi_xip_mode
                0x000041a4       0x80 ./synergy/board/s5d9_pk/bsp_qspi.o
 .text.bsp_qspi_init
                0x00004224      0x138 ./synergy/board/s5d9_pk/bsp_qspi.o
                0x00004224                bsp_qspi_init
 .text.g_common_init
                0x0000435c        0x4 ./src/synergy_gen/common_data.o
                0x0000435c                g_common_init
 .text.g_hal_init
                0x00004360        0x4 ./src/synergy_gen/hal_data.o
                0x00004360                g_hal_init
 .text.tx_application_define_internal
                0x00004364        0x4 ./src/synergy_gen/main.o
                0x00004364                tx_application_define_user
                0x00004364                tx_application_define_internal
 .text.tx_startup_err_callback_internal
                0x00004368        0x4 ./src/synergy_gen/main.o
                0x00004368                tx_startup_err_callback_internal
                0x00004368                tx_startup_err_callback
 .text.tx_application_define
                0x0000436c       0x40 ./src/synergy_gen/main.o
                0x0000436c                tx_application_define
 .text.tx_startup_common_init
                0x000043ac       0x64 ./src/synergy_gen/main.o
                0x000043ac                tx_startup_common_init
 .text.startup.main
                0x00004410        0xc ./src/synergy_gen/main.o
                0x00004410                main
 .text.thread0_func
                0x0000441c       0x10 ./src/synergy_gen/thread0.o
 .text.thread0_create
                0x0000442c       0xd4 ./src/synergy_gen/thread0.o
                0x0000442c                thread0_create
 .text.thread0_entry
                0x00004500      0x120 ./src/thread0_entry.o
                0x00004500                thread0_entry
 .text._txe_queue_create
                0x00004620       0xd0 C:\Users\kirti\PK_S5D9\verify\synergy\ssp\src\framework\el\tx\cm4_gcc\libtx.a(txe_queue_create.o)
                0x00004620                _txe_queue_create
 .text._txe_semaphore_create
                0x000046f0       0xa4 C:\Users\kirti\PK_S5D9\verify\synergy\ssp\src\framework\el\tx\cm4_gcc\libtx.a(txe_semaphore_create.o)
                0x000046f0                _txe_semaphore_create
 .text._txe_semaphore_get
                0x00004794       0x2c C:\Users\kirti\PK_S5D9\verify\synergy\ssp\src\framework\el\tx\cm4_gcc\libtx.a(txe_semaphore_get.o)
                0x00004794                _txe_semaphore_get
 .text._txe_semaphore_put
                0x000047c0       0x18 C:\Users\kirti\PK_S5D9\verify\synergy\ssp\src\framework\el\tx\cm4_gcc\libtx.a(txe_semaphore_put.o)
                0x000047c0                _txe_semaphore_put
 .text._txe_thread_create
                0x000047d8      0x150 C:\Users\kirti\PK_S5D9\verify\synergy\ssp\src\framework\el\tx\cm4_gcc\libtx.a(txe_thread_create.o)
                0x000047d8                _txe_thread_create
 .text._tx_initialize_high_level
                0x00004928       0x70 C:\Users\kirti\PK_S5D9\verify\synergy\ssp\src\framework\el\tx\cm4_gcc\libtx.a(tx_initialize_high_level.o)
                0x00004928                _tx_initialize_high_level
 .text._tx_initialize_kernel_enter
                0x00004998       0x48 C:\Users\kirti\PK_S5D9\verify\synergy\ssp\src\framework\el\tx\cm4_gcc\libtx.a(tx_initialize_kernel_enter.o)
                0x00004998                _tx_initialize_kernel_enter
 .text.tx_isr_end
                0x000049e0        0x4 C:\Users\kirti\PK_S5D9\verify\synergy\ssp\src\framework\el\tx\cm4_gcc\libtx.a(tx_isr_end.o)
                0x000049e0                tx_isr_end
 .text.tx_isr_start
                0x000049e4        0x4 C:\Users\kirti\PK_S5D9\verify\synergy\ssp\src\framework\el\tx\cm4_gcc\libtx.a(tx_isr_start.o)
                0x000049e4                tx_isr_start
 .text._tx_queue_create
                0x000049e8       0x70 C:\Users\kirti\PK_S5D9\verify\synergy\ssp\src\framework\el\tx\cm4_gcc\libtx.a(tx_queue_create.o)
                0x000049e8                _tx_queue_create
 .text._tx_semaphore_create
                0x00004a58       0x54 C:\Users\kirti\PK_S5D9\verify\synergy\ssp\src\framework\el\tx\cm4_gcc\libtx.a(tx_semaphore_create.o)
                0x00004a58                _tx_semaphore_create
 .text._tx_semaphore_get
                0x00004aac       0x84 C:\Users\kirti\PK_S5D9\verify\synergy\ssp\src\framework\el\tx\cm4_gcc\libtx.a(tx_semaphore_get.o)
                0x00004aac                _tx_semaphore_get
 .text._tx_semaphore_put
                0x00004b30       0x54 C:\Users\kirti\PK_S5D9\verify\synergy\ssp\src\framework\el\tx\cm4_gcc\libtx.a(tx_semaphore_put.o)
                0x00004b30                _tx_semaphore_put
 .text._tx_thread_create
                0x00004b84      0x138 C:\Users\kirti\PK_S5D9\verify\synergy\ssp\src\framework\el\tx\cm4_gcc\libtx.a(tx_thread_create.o)
                0x00004b84                _tx_thread_create
 .text._tx_thread_initialize
                0x00004cbc       0x64 C:\Users\kirti\PK_S5D9\verify\synergy\ssp\src\framework\el\tx\cm4_gcc\libtx.a(tx_thread_initialize.o)
                0x00004cbc                _tx_thread_initialize
 .text._tx_thread_shell_entry
                0x00004d20       0x48 C:\Users\kirti\PK_S5D9\verify\synergy\ssp\src\framework\el\tx\cm4_gcc\libtx.a(tx_thread_shell_entry.o)
                0x00004d20                _tx_thread_shell_entry
 .text._tx_thread_sleep
                0x00004d68       0x60 C:\Users\kirti\PK_S5D9\verify\synergy\ssp\src\framework\el\tx\cm4_gcc\libtx.a(tx_thread_sleep.o)
                0x00004d68                _tx_thread_sleep
 .text._tx_thread_system_preempt_check
                0x00004dc8       0x3c C:\Users\kirti\PK_S5D9\verify\synergy\ssp\src\framework\el\tx\cm4_gcc\libtx.a(tx_thread_system_preempt_check.o)
                0x00004dc8                _tx_thread_system_preempt_check
 .text._tx_thread_system_resume
                0x00004e04       0xec C:\Users\kirti\PK_S5D9\verify\synergy\ssp\src\framework\el\tx\cm4_gcc\libtx.a(tx_thread_system_resume.o)
                0x00004e04                _tx_thread_system_resume
 .text._tx_thread_system_suspend
                0x00004ef0      0x104 C:\Users\kirti\PK_S5D9\verify\synergy\ssp\src\framework\el\tx\cm4_gcc\libtx.a(tx_thread_system_suspend.o)
                0x00004ef0                _tx_thread_system_suspend
 .text._tx_thread_timeout
                0x00004ff4       0x40 C:\Users\kirti\PK_S5D9\verify\synergy\ssp\src\framework\el\tx\cm4_gcc\libtx.a(tx_thread_timeout.o)
                0x00004ff4                _tx_thread_timeout
 .text._tx_timer_initialize
                0x00005034       0x74 C:\Users\kirti\PK_S5D9\verify\synergy\ssp\src\framework\el\tx\cm4_gcc\libtx.a(tx_timer_initialize.o)
                0x00005034                _tx_timer_initialize
 .text._tx_timer_system_activate
                0x000050a8       0x54 C:\Users\kirti\PK_S5D9\verify\synergy\ssp\src\framework\el\tx\cm4_gcc\libtx.a(tx_timer_system_activate.o)
                0x000050a8                _tx_timer_system_activate
 .text._tx_timer_system_deactivate
                0x000050fc       0x2c C:\Users\kirti\PK_S5D9\verify\synergy\ssp\src\framework\el\tx\cm4_gcc\libtx.a(tx_timer_system_deactivate.o)
                0x000050fc                _tx_timer_system_deactivate
 .text._tx_initialize_low_level
                0x00005128       0x8c C:\Users\kirti\PK_S5D9\verify\synergy\ssp\src\framework\el\tx\cm4_gcc\libtx.a(tx_initialize_low_level.o)
                0x00005128                _tx_initialize_low_level
 .text._tx_thread_schedule
                0x000051b4       0x5c C:\Users\kirti\PK_S5D9\verify\synergy\ssp\src\framework\el\tx\cm4_gcc\libtx.a(tx_thread_schedule.o)
                0x000051b4                _tx_thread_schedule
 .text._tx_port_wait_thread_ready
                0x00005210       0xa8 C:\Users\kirti\PK_S5D9\verify\synergy\ssp\src\framework\el\tx\cm4_gcc\libtx.a(tx_thread_schedule.o)
                0x00005210                _tx_port_wait_thread_ready
 .text.PendSV_Handler
                0x000052b8       0xb4 C:\Users\kirti\PK_S5D9\verify\synergy\ssp\src\framework\el\tx\cm4_gcc\libtx.a(tx_thread_schedule.o)
                0x000052b8                PendSV_Handler
 .text.SysTick_Handler
                0x0000536c        0x4 C:\Users\kirti\PK_S5D9\verify\synergy\ssp\src\framework\el\tx\cm4_gcc\libtx.a(tx_thread_schedule.o)
                0x0000536c                SysTick_Handler
 .text._tx_thread_stack_build
                0x00005370       0x48 C:\Users\kirti\PK_S5D9\verify\synergy\ssp\src\framework\el\tx\cm4_gcc\libtx.a(tx_thread_stack_build.o)
                0x00005370                _tx_thread_stack_build
 .text._tx_timer_interrupt
                0x000053b8       0xc0 C:\Users\kirti\PK_S5D9\verify\synergy\ssp\src\framework\el\tx\cm4_gcc\libtx.a(tx_timer_interrupt.o)
                0x000053b8                _tx_timer_interrupt
 .text._tx_semaphore_cleanup
                0x00005478       0x80 C:\Users\kirti\PK_S5D9\verify\synergy\ssp\src\framework\el\tx\cm4_gcc\libtx.a(tx_semaphore_cleanup.o)
                0x00005478                _tx_semaphore_cleanup
 .text._tx_thread_time_slice
                0x000054f8       0x74 C:\Users\kirti\PK_S5D9\verify\synergy\ssp\src\framework\el\tx\cm4_gcc\libtx.a(tx_thread_time_slice.o)
                0x000054f8                _tx_thread_time_slice
 .text._tx_timer_expiration_process
                0x0000556c      0x104 C:\Users\kirti\PK_S5D9\verify\synergy\ssp\src\framework\el\tx\cm4_gcc\libtx.a(tx_timer_expiration_process.o)
                0x0000556c                _tx_timer_expiration_process
 .text.__errno  0x00005670        0xc c:/renesas/synergy/e2studio_v7.5.1_ssp_v1.7.5/toolchains/gcc_arm/7.2.1_2017q4/bin/../lib/gcc/arm-none-eabi/7.2.1/../../../../arm-none-eabi/lib/thumb/v7e-m/fpv4-sp/hard\libg_nano.a(lib_a-errno.o)
                0x00005670                __errno
 .text.memcmp   0x0000567c       0x1e c:/renesas/synergy/e2studio_v7.5.1_ssp_v1.7.5/toolchains/gcc_arm/7.2.1_2017q4/bin/../lib/gcc/arm-none-eabi/7.2.1/../../../../arm-none-eabi/lib/thumb/v7e-m/fpv4-sp/hard\libg_nano.a(lib_a-memcmp.o)
                0x0000567c                memcmp
 .text.memset   0x0000569a       0x10 c:/renesas/synergy/e2studio_v7.5.1_ssp_v1.7.5/toolchains/gcc_arm/7.2.1_2017q4/bin/../lib/gcc/arm-none-eabi/7.2.1/../../../../arm-none-eabi/lib/thumb/v7e-m/fpv4-sp/hard\libg_nano.a(lib_a-memset.o)
                0x0000569a                memset
 *fill*         0x000056aa        0x2 ff
 .text.printf   0x000056ac       0x30 c:/renesas/synergy/e2studio_v7.5.1_ssp_v1.7.5/toolchains/gcc_arm/7.2.1_2017q4/bin/../lib/gcc/arm-none-eabi/7.2.1/../../../../arm-none-eabi/lib/thumb/v7e-m/fpv4-sp/hard\libg_nano.a(lib_a-printf.o)
                0x000056ac                iprintf
                0x000056ac                printf
 .text.srand    0x000056dc       0x48 c:/renesas/synergy/e2studio_v7.5.1_ssp_v1.7.5/toolchains/gcc_arm/7.2.1_2017q4/bin/../lib/gcc/arm-none-eabi/7.2.1/../../../../arm-none-eabi/lib/thumb/v7e-m/fpv4-sp/hard\libg_nano.a(lib_a-rand.o)
                0x000056dc                srand
 .text.std      0x00005724       0x48 c:/renesas/synergy/e2studio_v7.5.1_ssp_v1.7.5/toolchains/gcc_arm/7.2.1_2017q4/bin/../lib/gcc/arm-none-eabi/7.2.1/../../../../arm-none-eabi/lib/thumb/v7e-m/fpv4-sp/hard\libg_nano.a(lib_a-findfp.o)
 .text._cleanup_r
                0x0000576c        0xc c:/renesas/synergy/e2studio_v7.5.1_ssp_v1.7.5/toolchains/gcc_arm/7.2.1_2017q4/bin/../lib/gcc/arm-none-eabi/7.2.1/../../../../arm-none-eabi/lib/thumb/v7e-m/fpv4-sp/hard\libg_nano.a(lib_a-findfp.o)
                0x0000576c                _cleanup_r
 .text.__sfmoreglue
                0x00005778       0x2c c:/renesas/synergy/e2studio_v7.5.1_ssp_v1.7.5/toolchains/gcc_arm/7.2.1_2017q4/bin/../lib/gcc/arm-none-eabi/7.2.1/../../../../arm-none-eabi/lib/thumb/v7e-m/fpv4-sp/hard\libg_nano.a(lib_a-findfp.o)
                0x00005778                __sfmoreglue
 .text.__sinit  0x000057a4       0x60 c:/renesas/synergy/e2studio_v7.5.1_ssp_v1.7.5/toolchains/gcc_arm/7.2.1_2017q4/bin/../lib/gcc/arm-none-eabi/7.2.1/../../../../arm-none-eabi/lib/thumb/v7e-m/fpv4-sp/hard\libg_nano.a(lib_a-findfp.o)
                0x000057a4                __sinit
 .text.__sfp    0x00005804       0x78 c:/renesas/synergy/e2studio_v7.5.1_ssp_v1.7.5/toolchains/gcc_arm/7.2.1_2017q4/bin/../lib/gcc/arm-none-eabi/7.2.1/../../../../arm-none-eabi/lib/thumb/v7e-m/fpv4-sp/hard\libg_nano.a(lib_a-findfp.o)
                0x00005804                __sfp
 .text._fwalk_reent
                0x0000587c       0x3c c:/renesas/synergy/e2studio_v7.5.1_ssp_v1.7.5/toolchains/gcc_arm/7.2.1_2017q4/bin/../lib/gcc/arm-none-eabi/7.2.1/../../../../arm-none-eabi/lib/thumb/v7e-m/fpv4-sp/hard\libg_nano.a(lib_a-fwalk.o)
                0x0000587c                _fwalk_reent
 .text.malloc   0x000058b8       0x10 c:/renesas/synergy/e2studio_v7.5.1_ssp_v1.7.5/toolchains/gcc_arm/7.2.1_2017q4/bin/../lib/gcc/arm-none-eabi/7.2.1/../../../../arm-none-eabi/lib/thumb/v7e-m/fpv4-sp/hard\libg_nano.a(lib_a-malloc.o)
                0x000058b8                malloc
 .text._free_r  0x000058c8       0x9c c:/renesas/synergy/e2studio_v7.5.1_ssp_v1.7.5/toolchains/gcc_arm/7.2.1_2017q4/bin/../lib/gcc/arm-none-eabi/7.2.1/../../../../arm-none-eabi/lib/thumb/v7e-m/fpv4-sp/hard\libg_nano.a(lib_a-nano-freer.o)
                0x000058c8                _free_r
 .text._malloc_r
                0x00005964       0xb4 c:/renesas/synergy/e2studio_v7.5.1_ssp_v1.7.5/toolchains/gcc_arm/7.2.1_2017q4/bin/../lib/gcc/arm-none-eabi/7.2.1/../../../../arm-none-eabi/lib/thumb/v7e-m/fpv4-sp/hard\libg_nano.a(lib_a-nano-mallocr.o)
                0x00005964                _malloc_r
 .text.__sfputc_r
                0x00005a18       0x2e c:/renesas/synergy/e2studio_v7.5.1_ssp_v1.7.5/toolchains/gcc_arm/7.2.1_2017q4/bin/../lib/gcc/arm-none-eabi/7.2.1/../../../../arm-none-eabi/lib/thumb/v7e-m/fpv4-sp/hard\libg_nano.a(lib_a-nano-vfprintf.o)
 .text.__sfputs_r
                0x00005a46       0x24 c:/renesas/synergy/e2studio_v7.5.1_ssp_v1.7.5/toolchains/gcc_arm/7.2.1_2017q4/bin/../lib/gcc/arm-none-eabi/7.2.1/../../../../arm-none-eabi/lib/thumb/v7e-m/fpv4-sp/hard\libg_nano.a(lib_a-nano-vfprintf.o)
                0x00005a46                __sfputs_r
 *fill*         0x00005a6a        0x2 ff
 .text._vfprintf_r
                0x00005a6c      0x228 c:/renesas/synergy/e2studio_v7.5.1_ssp_v1.7.5/toolchains/gcc_arm/7.2.1_2017q4/bin/../lib/gcc/arm-none-eabi/7.2.1/../../../../arm-none-eabi/lib/thumb/v7e-m/fpv4-sp/hard\libg_nano.a(lib_a-nano-vfprintf.o)
                0x00005a6c                _vfprintf_r
                0x00005a6c                _vfiprintf_r
 .text._printf_common
                0x00005c94       0xea c:/renesas/synergy/e2studio_v7.5.1_ssp_v1.7.5/toolchains/gcc_arm/7.2.1_2017q4/bin/../lib/gcc/arm-none-eabi/7.2.1/../../../../arm-none-eabi/lib/thumb/v7e-m/fpv4-sp/hard\libg_nano.a(lib_a-nano-vfprintf_i.o)
                0x00005c94                _printf_common
 *fill*         0x00005d7e        0x2 ff
 .text._printf_i
                0x00005d80      0x224 c:/renesas/synergy/e2studio_v7.5.1_ssp_v1.7.5/toolchains/gcc_arm/7.2.1_2017q4/bin/../lib/gcc/arm-none-eabi/7.2.1/../../../../arm-none-eabi/lib/thumb/v7e-m/fpv4-sp/hard\libg_nano.a(lib_a-nano-vfprintf_i.o)
                0x00005d80                _printf_i
 .text._sbrk_r  0x00005fa4       0x20 c:/renesas/synergy/e2studio_v7.5.1_ssp_v1.7.5/toolchains/gcc_arm/7.2.1_2017q4/bin/../lib/gcc/arm-none-eabi/7.2.1/../../../../arm-none-eabi/lib/thumb/v7e-m/fpv4-sp/hard\libg_nano.a(lib_a-sbrkr.o)
                0x00005fa4                _sbrk_r
 .text.__sread  0x00005fc4       0x22 c:/renesas/synergy/e2studio_v7.5.1_ssp_v1.7.5/toolchains/gcc_arm/7.2.1_2017q4/bin/../lib/gcc/arm-none-eabi/7.2.1/../../../../arm-none-eabi/lib/thumb/v7e-m/fpv4-sp/hard\libg_nano.a(lib_a-stdio.o)
                0x00005fc4                __sread
 .text.__swrite
                0x00005fe6       0x38 c:/renesas/synergy/e2studio_v7.5.1_ssp_v1.7.5/toolchains/gcc_arm/7.2.1_2017q4/bin/../lib/gcc/arm-none-eabi/7.2.1/../../../../arm-none-eabi/lib/thumb/v7e-m/fpv4-sp/hard\libg_nano.a(lib_a-stdio.o)
                0x00005fe6                __swrite
 .text.__sseek  0x0000601e       0x24 c:/renesas/synergy/e2studio_v7.5.1_ssp_v1.7.5/toolchains/gcc_arm/7.2.1_2017q4/bin/../lib/gcc/arm-none-eabi/7.2.1/../../../../arm-none-eabi/lib/thumb/v7e-m/fpv4-sp/hard\libg_nano.a(lib_a-stdio.o)
                0x0000601e                __sseek
 .text.__sclose
                0x00006042        0x8 c:/renesas/synergy/e2studio_v7.5.1_ssp_v1.7.5/toolchains/gcc_arm/7.2.1_2017q4/bin/../lib/gcc/arm-none-eabi/7.2.1/../../../../arm-none-eabi/lib/thumb/v7e-m/fpv4-sp/hard\libg_nano.a(lib_a-stdio.o)
                0x00006042                __sclose
 *fill*         0x0000604a        0x2 ff
 .text.__swbuf_r
                0x0000604c       0xa4 c:/renesas/synergy/e2studio_v7.5.1_ssp_v1.7.5/toolchains/gcc_arm/7.2.1_2017q4/bin/../lib/gcc/arm-none-eabi/7.2.1/../../../../arm-none-eabi/lib/thumb/v7e-m/fpv4-sp/hard\libg_nano.a(lib_a-wbuf.o)
                0x0000604c                __swbuf_r
 .text._write_r
                0x000060f0       0x24 c:/renesas/synergy/e2studio_v7.5.1_ssp_v1.7.5/toolchains/gcc_arm/7.2.1_2017q4/bin/../lib/gcc/arm-none-eabi/7.2.1/../../../../arm-none-eabi/lib/thumb/v7e-m/fpv4-sp/hard\libg_nano.a(lib_a-writer.o)
                0x000060f0                _write_r
 .text.__swsetup_r
                0x00006114       0xdc c:/renesas/synergy/e2studio_v7.5.1_ssp_v1.7.5/toolchains/gcc_arm/7.2.1_2017q4/bin/../lib/gcc/arm-none-eabi/7.2.1/../../../../arm-none-eabi/lib/thumb/v7e-m/fpv4-sp/hard\libg_nano.a(lib_a-wsetup.o)
                0x00006114                __swsetup_r
 .text._close_r
                0x000061f0       0x20 c:/renesas/synergy/e2studio_v7.5.1_ssp_v1.7.5/toolchains/gcc_arm/7.2.1_2017q4/bin/../lib/gcc/arm-none-eabi/7.2.1/../../../../arm-none-eabi/lib/thumb/v7e-m/fpv4-sp/hard\libg_nano.a(lib_a-closer.o)
                0x000061f0                _close_r
 .text.__sflush_r
                0x00006210      0x10c c:/renesas/synergy/e2studio_v7.5.1_ssp_v1.7.5/toolchains/gcc_arm/7.2.1_2017q4/bin/../lib/gcc/arm-none-eabi/7.2.1/../../../../arm-none-eabi/lib/thumb/v7e-m/fpv4-sp/hard\libg_nano.a(lib_a-fflush.o)
                0x00006210                __sflush_r
 .text._fflush_r
                0x0000631c       0x54 c:/renesas/synergy/e2studio_v7.5.1_ssp_v1.7.5/toolchains/gcc_arm/7.2.1_2017q4/bin/../lib/gcc/arm-none-eabi/7.2.1/../../../../arm-none-eabi/lib/thumb/v7e-m/fpv4-sp/hard\libg_nano.a(lib_a-fflush.o)
                0x0000631c                _fflush_r
 .text._lseek_r
                0x00006370       0x24 c:/renesas/synergy/e2studio_v7.5.1_ssp_v1.7.5/toolchains/gcc_arm/7.2.1_2017q4/bin/../lib/gcc/arm-none-eabi/7.2.1/../../../../arm-none-eabi/lib/thumb/v7e-m/fpv4-sp/hard\libg_nano.a(lib_a-lseekr.o)
                0x00006370                _lseek_r
 .text.__swhatbuf_r
                0x00006394       0x48 c:/renesas/synergy/e2studio_v7.5.1_ssp_v1.7.5/toolchains/gcc_arm/7.2.1_2017q4/bin/../lib/gcc/arm-none-eabi/7.2.1/../../../../arm-none-eabi/lib/thumb/v7e-m/fpv4-sp/hard\libg_nano.a(lib_a-makebuf.o)
                0x00006394                __swhatbuf_r
 .text.__smakebuf_r
                0x000063dc       0x80 c:/renesas/synergy/e2studio_v7.5.1_ssp_v1.7.5/toolchains/gcc_arm/7.2.1_2017q4/bin/../lib/gcc/arm-none-eabi/7.2.1/../../../../arm-none-eabi/lib/thumb/v7e-m/fpv4-sp/hard\libg_nano.a(lib_a-makebuf.o)
                0x000063dc                __smakebuf_r
 *fill*         0x0000645c        0x4 ff
 .text          0x00006460       0xa0 c:/renesas/synergy/e2studio_v7.5.1_ssp_v1.7.5/toolchains/gcc_arm/7.2.1_2017q4/bin/../lib/gcc/arm-none-eabi/7.2.1/../../../../arm-none-eabi/lib/thumb/v7e-m/fpv4-sp/hard\libg_nano.a(lib_a-memchr.o)
                0x00006460                memchr
 .text.__malloc_lock
                0x00006500        0x2 c:/renesas/synergy/e2studio_v7.5.1_ssp_v1.7.5/toolchains/gcc_arm/7.2.1_2017q4/bin/../lib/gcc/arm-none-eabi/7.2.1/../../../../arm-none-eabi/lib/thumb/v7e-m/fpv4-sp/hard\libg_nano.a(lib_a-mlock.o)
                0x00006500                __malloc_lock
 .text.__malloc_unlock
                0x00006502        0x2 c:/renesas/synergy/e2studio_v7.5.1_ssp_v1.7.5/toolchains/gcc_arm/7.2.1_2017q4/bin/../lib/gcc/arm-none-eabi/7.2.1/../../../../arm-none-eabi/lib/thumb/v7e-m/fpv4-sp/hard\libg_nano.a(lib_a-mlock.o)
                0x00006502                __malloc_unlock
 .text._read_r  0x00006504       0x24 c:/renesas/synergy/e2studio_v7.5.1_ssp_v1.7.5/toolchains/gcc_arm/7.2.1_2017q4/bin/../lib/gcc/arm-none-eabi/7.2.1/../../../../arm-none-eabi/lib/thumb/v7e-m/fpv4-sp/hard\libg_nano.a(lib_a-readr.o)
                0x00006504                _read_r
 .text._fstat_r
                0x00006528       0x24 c:/renesas/synergy/e2studio_v7.5.1_ssp_v1.7.5/toolchains/gcc_arm/7.2.1_2017q4/bin/../lib/gcc/arm-none-eabi/7.2.1/../../../../arm-none-eabi/lib/thumb/v7e-m/fpv4-sp/hard\libg_nano.a(lib_a-fstatr.o)
                0x00006528                _fstat_r
 .text._isatty_r
                0x0000654c       0x20 c:/renesas/synergy/e2studio_v7.5.1_ssp_v1.7.5/toolchains/gcc_arm/7.2.1_2017q4/bin/../lib/gcc/arm-none-eabi/7.2.1/../../../../arm-none-eabi/lib/thumb/v7e-m/fpv4-sp/hard\libg_nano.a(lib_a-isattyr.o)
                0x0000654c                _isatty_r
 .text.findslot
                0x0000656c       0x34 c:/renesas/synergy/e2studio_v7.5.1_ssp_v1.7.5/toolchains/gcc_arm/7.2.1_2017q4/bin/../lib/gcc/arm-none-eabi/7.2.1/../../../../arm-none-eabi/lib/thumb/v7e-m/fpv4-sp/hard\librdimon_nano.a(rdimon-syscalls.o)
 .text.checkerror
                0x000065a0       0x20 c:/renesas/synergy/e2studio_v7.5.1_ssp_v1.7.5/toolchains/gcc_arm/7.2.1_2017q4/bin/../lib/gcc/arm-none-eabi/7.2.1/../../../../arm-none-eabi/lib/thumb/v7e-m/fpv4-sp/hard\librdimon_nano.a(rdimon-syscalls.o)
 .text.error    0x000065c0       0x1c c:/renesas/synergy/e2studio_v7.5.1_ssp_v1.7.5/toolchains/gcc_arm/7.2.1_2017q4/bin/../lib/gcc/arm-none-eabi/7.2.1/../../../../arm-none-eabi/lib/thumb/v7e-m/fpv4-sp/hard\librdimon_nano.a(rdimon-syscalls.o)
 .text._swiread
                0x000065dc       0x20 c:/renesas/synergy/e2studio_v7.5.1_ssp_v1.7.5/toolchains/gcc_arm/7.2.1_2017q4/bin/../lib/gcc/arm-none-eabi/7.2.1/../../../../arm-none-eabi/lib/thumb/v7e-m/fpv4-sp/hard\librdimon_nano.a(rdimon-syscalls.o)
                0x000065dc                _swiread
 .text._read    0x000065fc       0x34 c:/renesas/synergy/e2studio_v7.5.1_ssp_v1.7.5/toolchains/gcc_arm/7.2.1_2017q4/bin/../lib/gcc/arm-none-eabi/7.2.1/../../../../arm-none-eabi/lib/thumb/v7e-m/fpv4-sp/hard\librdimon_nano.a(rdimon-syscalls.o)
                0x000065fc                _read
 .text._swilseek
                0x00006630       0x7a c:/renesas/synergy/e2studio_v7.5.1_ssp_v1.7.5/toolchains/gcc_arm/7.2.1_2017q4/bin/../lib/gcc/arm-none-eabi/7.2.1/../../../../arm-none-eabi/lib/thumb/v7e-m/fpv4-sp/hard\librdimon_nano.a(rdimon-syscalls.o)
                0x00006630                _swilseek
 .text._lseek   0x000066aa        0x4 c:/renesas/synergy/e2studio_v7.5.1_ssp_v1.7.5/toolchains/gcc_arm/7.2.1_2017q4/bin/../lib/gcc/arm-none-eabi/7.2.1/../../../../arm-none-eabi/lib/thumb/v7e-m/fpv4-sp/hard\librdimon_nano.a(rdimon-syscalls.o)
                0x000066aa                _lseek
 .text._swiwrite
                0x000066ae       0x20 c:/renesas/synergy/e2studio_v7.5.1_ssp_v1.7.5/toolchains/gcc_arm/7.2.1_2017q4/bin/../lib/gcc/arm-none-eabi/7.2.1/../../../../arm-none-eabi/lib/thumb/v7e-m/fpv4-sp/hard\librdimon_nano.a(rdimon-syscalls.o)
                0x000066ae                _swiwrite
 .text._write   0x000066ce       0x40 c:/renesas/synergy/e2studio_v7.5.1_ssp_v1.7.5/toolchains/gcc_arm/7.2.1_2017q4/bin/../lib/gcc/arm-none-eabi/7.2.1/../../../../arm-none-eabi/lib/thumb/v7e-m/fpv4-sp/hard\librdimon_nano.a(rdimon-syscalls.o)
                0x000066ce                _write
 .text._swiclose
                0x0000670e       0x1c c:/renesas/synergy/e2studio_v7.5.1_ssp_v1.7.5/toolchains/gcc_arm/7.2.1_2017q4/bin/../lib/gcc/arm-none-eabi/7.2.1/../../../../arm-none-eabi/lib/thumb/v7e-m/fpv4-sp/hard\librdimon_nano.a(rdimon-syscalls.o)
                0x0000670e                _swiclose
 *fill*         0x0000672a        0x2 ff
 .text._close   0x0000672c       0x4c c:/renesas/synergy/e2studio_v7.5.1_ssp_v1.7.5/toolchains/gcc_arm/7.2.1_2017q4/bin/../lib/gcc/arm-none-eabi/7.2.1/../../../../arm-none-eabi/lib/thumb/v7e-m/fpv4-sp/hard\librdimon_nano.a(rdimon-syscalls.o)
                0x0000672c                _close
 .text._swistat
                0x00006778       0x42 c:/renesas/synergy/e2studio_v7.5.1_ssp_v1.7.5/toolchains/gcc_arm/7.2.1_2017q4/bin/../lib/gcc/arm-none-eabi/7.2.1/../../../../arm-none-eabi/lib/thumb/v7e-m/fpv4-sp/hard\librdimon_nano.a(rdimon-syscalls.o)
                0x00006778                _swistat
 .text._fstat   0x000067ba       0x1c c:/renesas/synergy/e2studio_v7.5.1_ssp_v1.7.5/toolchains/gcc_arm/7.2.1_2017q4/bin/../lib/gcc/arm-none-eabi/7.2.1/../../../../arm-none-eabi/lib/thumb/v7e-m/fpv4-sp/hard\librdimon_nano.a(rdimon-syscalls.o)
                0x000067ba                _fstat
 .text._stat    0x000067d6       0x3a c:/renesas/synergy/e2studio_v7.5.1_ssp_v1.7.5/toolchains/gcc_arm/7.2.1_2017q4/bin/../lib/gcc/arm-none-eabi/7.2.1/../../../../arm-none-eabi/lib/thumb/v7e-m/fpv4-sp/hard\librdimon_nano.a(rdimon-syscalls.o)
                0x000067d6                _stat
 .text._swiopen
                0x00006810       0xb8 c:/renesas/synergy/e2studio_v7.5.1_ssp_v1.7.5/toolchains/gcc_arm/7.2.1_2017q4/bin/../lib/gcc/arm-none-eabi/7.2.1/../../../../arm-none-eabi/lib/thumb/v7e-m/fpv4-sp/hard\librdimon_nano.a(rdimon-syscalls.o)
                0x00006810                _swiopen
 .text._get_semihosting_exts
                0x000068c8       0xb4 c:/renesas/synergy/e2studio_v7.5.1_ssp_v1.7.5/toolchains/gcc_arm/7.2.1_2017q4/bin/../lib/gcc/arm-none-eabi/7.2.1/../../../../arm-none-eabi/lib/thumb/v7e-m/fpv4-sp/hard\librdimon_nano.a(rdimon-syscalls.o)
                0x000068c8                _get_semihosting_exts
 .text.initialise_semihosting_exts
                0x0000697c       0x34 c:/renesas/synergy/e2studio_v7.5.1_ssp_v1.7.5/toolchains/gcc_arm/7.2.1_2017q4/bin/../lib/gcc/arm-none-eabi/7.2.1/../../../../arm-none-eabi/lib/thumb/v7e-m/fpv4-sp/hard\librdimon_nano.a(rdimon-syscalls.o)
 .text._has_ext_stdout_stderr
                0x000069b0       0x18 c:/renesas/synergy/e2studio_v7.5.1_ssp_v1.7.5/toolchains/gcc_arm/7.2.1_2017q4/bin/../lib/gcc/arm-none-eabi/7.2.1/../../../../arm-none-eabi/lib/thumb/v7e-m/fpv4-sp/hard\librdimon_nano.a(rdimon-syscalls.o)
                0x000069b0                _has_ext_stdout_stderr
 .text.initialise_monitor_handles
                0x000069c8       0xbc c:/renesas/synergy/e2studio_v7.5.1_ssp_v1.7.5/toolchains/gcc_arm/7.2.1_2017q4/bin/../lib/gcc/arm-none-eabi/7.2.1/../../../../arm-none-eabi/lib/thumb/v7e-m/fpv4-sp/hard\librdimon_nano.a(rdimon-syscalls.o)
                0x000069c8                initialise_monitor_handles
 .text._isatty  0x00006a84       0x38 c:/renesas/synergy/e2studio_v7.5.1_ssp_v1.7.5/toolchains/gcc_arm/7.2.1_2017q4/bin/../lib/gcc/arm-none-eabi/7.2.1/../../../../arm-none-eabi/lib/thumb/v7e-m/fpv4-sp/hard\librdimon_nano.a(rdimon-syscalls.o)
                0x00006a84                _isatty
 .text          0x00006abc       0x10 c:/renesas/synergy/e2studio_v7.5.1_ssp_v1.7.5/toolchains/gcc_arm/7.2.1_2017q4/bin/../lib/gcc/arm-none-eabi/7.2.1/../../../../arm-none-eabi/lib/thumb/v7e-m/fpv4-sp/hard\libc_nano.a(lib_a-strlen.o)
                0x00006abc                strlen
 *(.version)
 .version       0x00006acc       0x60 ./synergy/ssp/src/bsp/mcu/all/bsp_common.o
 *(.init)
 .init          0x00006b2c        0x4 c:/renesas/synergy/e2studio_v7.5.1_ssp_v1.7.5/toolchains/gcc_arm/7.2.1_2017q4/bin/../lib/gcc/arm-none-eabi/7.2.1/thumb/v7e-m/fpv4-sp/hard/crti.o
                0x00006b2c                _init
 .init          0x00006b30        0x8 c:/renesas/synergy/e2studio_v7.5.1_ssp_v1.7.5/toolchains/gcc_arm/7.2.1_2017q4/bin/../lib/gcc/arm-none-eabi/7.2.1/thumb/v7e-m/fpv4-sp/hard/crtn.o
 *(.fini)
 .fini          0x00006b38        0x4 c:/renesas/synergy/e2studio_v7.5.1_ssp_v1.7.5/toolchains/gcc_arm/7.2.1_2017q4/bin/../lib/gcc/arm-none-eabi/7.2.1/thumb/v7e-m/fpv4-sp/hard/crti.o
                0x00006b38                _fini
 .fini          0x00006b3c        0x8 c:/renesas/synergy/e2studio_v7.5.1_ssp_v1.7.5/toolchains/gcc_arm/7.2.1_2017q4/bin/../lib/gcc/arm-none-eabi/7.2.1/thumb/v7e-m/fpv4-sp/hard/crtn.o
 *crtbegin.o(.ctors)
 *crtbegin?.o(.ctors)
 *(EXCLUDE_FILE(*crtend.o *crtend?.o) .ctors)
 *(SORT_BY_NAME(.ctors.*))
 *(.ctors)
 *crtbegin.o(.dtors)
 *crtbegin?.o(.dtors)
 *(EXCLUDE_FILE(*crtend.o *crtend?.o) .dtors)
 *(SORT_BY_NAME(.dtors.*))
 *(.dtors)
 *(.rodata*)
 .rodata.g_ioport_on_ioport
                0x00006b44       0x3c ./synergy/ssp/src/driver/r_ioport/r_ioport.o
                0x00006b44                g_ioport_on_ioport
 .rodata.g_vbatt_pins_input
                0x00006b80        0x6 ./synergy/ssp/src/driver/r_ioport/r_ioport.o
 *fill*         0x00006b86        0x2 ff
 .rodata.bit_count
                0x00006b88       0x80 ./synergy/ssp/src/driver/r_fmi/r_fmi.o
 .rodata.bit_count_mask
                0x00006c08        0x8 ./synergy/ssp/src/driver/r_fmi/r_fmi.o
 .rodata.g_fmi_on_fmi
                0x00006c10       0x18 ./synergy/ssp/src/driver/r_fmi/r_fmi.o
                0x00006c10                g_fmi_on_fmi
 .rodata.g_fmi_version
                0x00006c28        0x4 ./synergy/ssp/src/driver/r_fmi/r_fmi.o
 .rodata.g_elc_on_elc
                0x00006c2c       0x1c ./synergy/ssp/src/driver/r_elc/r_elc.o
                0x00006c2c                g_elc_on_elc
 .rodata.s_elc_version
                0x00006c48        0x4 ./synergy/ssp/src/driver/r_elc/r_elc.o
 .rodata.g_cgc_on_cgc
                0x00006c4c       0x6c ./synergy/ssp/src/driver/r_cgc/r_cgc.o
                0x00006c4c                g_cgc_on_cgc
 .rodata.g_cgc_version
                0x00006cb8        0x4 ./synergy/ssp/src/driver/r_cgc/r_cgc.o
 .rodata.g_pllccr2_div_setting
                0x00006cbc        0x8 ./synergy/ssp/src/driver/r_cgc/r_cgc.o
 .rodata.g_pllccr2_div_value
                0x00006cc4        0x6 ./synergy/ssp/src/driver/r_cgc/r_cgc.o
 *fill*         0x00006cca        0x2 ff
 .rodata.g_pllccr_div_setting
                0x00006ccc        0x6 ./synergy/ssp/src/driver/r_cgc/r_cgc.o
 *fill*         0x00006cd2        0x2 ff
 .rodata.g_pllccr_div_value
                0x00006cd4        0x6 ./synergy/ssp/src/driver/r_cgc/r_cgc.o
 *fill*         0x00006cda        0x2 ff
 .rodata.g_adc_on_adc
                0x00006cdc       0x34 ./synergy/ssp/src/driver/r_adc/r_adc.o
                0x00006cdc                g_adc_on_adc
 .rodata.s_adc_version
                0x00006d10        0x4 ./synergy/ssp/src/driver/r_adc/r_adc.o
 .rodata.g_cgc_feature
                0x00006d14       0x2c ./synergy/ssp/src/bsp/mcu/s5d9/bsp_feature.o
 .rodata.g_fmi_data
                0x00006d40      0x400 ./synergy/ssp/src/bsp/mcu/s5d9/bsp_fmi_R7FS5D97E3A01CFC.o
                0x00006d40                g_fmi_data
 .rodata.g_bsp_module_stop
                0x00007140       0x46 ./synergy/ssp/src/bsp/mcu/s5d9/bsp_module_stop.o
 *fill*         0x00007186        0x2 ff
 .rodata.gp_mstp
                0x00007188       0x10 ./synergy/ssp/src/bsp/mcu/s5d9/bsp_module_stop.o
 .rodata.gp_vector_information
                0x00007198        0x4 ./synergy/ssp/src/bsp/mcu/all/bsp_irq.o
                0x00007198                gp_vector_information
 .rodata.g_prcr_masks
                0x0000719c        0x6 ./synergy/ssp/src/bsp/mcu/all/bsp_register_protection.o
 *fill*         0x000071a2        0x2 ff
 .rodata.g_elc_cfg
                0x000071a4        0xc ./synergy/ssp/src/bsp/cmsis/Device/RENESAS/S5D9/Source/system_S5D9.o
 .rodata.g_bsp_leds
                0x000071b0        0x8 ./synergy/board/s5d9_pk/bsp_leds.o
                0x000071b0                g_bsp_leds
 .rodata.g_bsp_prv_leds
                0x000071b8        0x6 ./synergy/board/s5d9_pk/bsp_leds.o
 *fill*         0x000071be        0x2 ff
 .rodata.g_ioport
                0x000071c0        0x8 ./src/synergy_gen/common_data.o
                0x000071c0                g_ioport
 .rodata.tx_application_define.str1.4
                0x000071c8       0x14 ./src/synergy_gen/main.o
 .rodata.g_bsp_pin_cfg
                0x000071dc        0x8 ./src/synergy_gen/pin_data.o
                0x000071dc                g_bsp_pin_cfg
 .rodata.g_bsp_pin_cfg_data
                0x000071e4      0x3a0 ./src/synergy_gen/pin_data.o
                0x000071e4                g_bsp_pin_cfg_data
 .rodata.g_adc0
                0x00007584       0x10 ./src/synergy_gen/thread0.o
                0x00007584                g_adc0
 .rodata.g_adc0_cfg
                0x00007594       0x24 ./src/synergy_gen/thread0.o
                0x00007594                g_adc0_cfg
 .rodata.g_adc0_channel_cfg
                0x000075b8       0x14 ./src/synergy_gen/thread0.o
                0x000075b8                g_adc0_channel_cfg
 .rodata.thread0_create.str1.4
                0x000075cc       0x37 ./src/synergy_gen/thread0.o
 *fill*         0x00007603        0x1 ff
 .rodata.thread0_entry.str1.4
                0x00007604       0xa8 ./src/thread0_entry.o
                                 0xa5 (size before relaxing)
 .rodata.g_vfp_offset
                0x000076ac        0x4 C:\Users\kirti\PK_S5D9\verify\synergy\ssp\src\framework\el\tx\cm4_gcc\libtx.a(tx_thread_schedule.o)
                0x000076ac                g_vfp_offset
 .rodata._global_impure_ptr
                0x000076b0        0x4 c:/renesas/synergy/e2studio_v7.5.1_ssp_v1.7.5/toolchains/gcc_arm/7.2.1_2017q4/bin/../lib/gcc/arm-none-eabi/7.2.1/../../../../arm-none-eabi/lib/thumb/v7e-m/fpv4-sp/hard\libg_nano.a(lib_a-impure.o)
                0x000076b0                _global_impure_ptr
 .rodata.__sf_fake_stderr
                0x000076b4       0x20 c:/renesas/synergy/e2studio_v7.5.1_ssp_v1.7.5/toolchains/gcc_arm/7.2.1_2017q4/bin/../lib/gcc/arm-none-eabi/7.2.1/../../../../arm-none-eabi/lib/thumb/v7e-m/fpv4-sp/hard\libg_nano.a(lib_a-findfp.o)
                0x000076b4                __sf_fake_stderr
 .rodata.__sf_fake_stdin
                0x000076d4       0x20 c:/renesas/synergy/e2studio_v7.5.1_ssp_v1.7.5/toolchains/gcc_arm/7.2.1_2017q4/bin/../lib/gcc/arm-none-eabi/7.2.1/../../../../arm-none-eabi/lib/thumb/v7e-m/fpv4-sp/hard\libg_nano.a(lib_a-findfp.o)
                0x000076d4                __sf_fake_stdin
 .rodata.__sf_fake_stdout
                0x000076f4       0x20 c:/renesas/synergy/e2studio_v7.5.1_ssp_v1.7.5/toolchains/gcc_arm/7.2.1_2017q4/bin/../lib/gcc/arm-none-eabi/7.2.1/../../../../arm-none-eabi/lib/thumb/v7e-m/fpv4-sp/hard\libg_nano.a(lib_a-findfp.o)
                0x000076f4                __sf_fake_stdout
 .rodata._vfprintf_r.str1.1
                0x00007714       0x11 c:/renesas/synergy/e2studio_v7.5.1_ssp_v1.7.5/toolchains/gcc_arm/7.2.1_2017q4/bin/../lib/gcc/arm-none-eabi/7.2.1/../../../../arm-none-eabi/lib/thumb/v7e-m/fpv4-sp/hard\libg_nano.a(lib_a-nano-vfprintf.o)
 .rodata._printf_i.str1.1
                0x00007725       0x22 c:/renesas/synergy/e2studio_v7.5.1_ssp_v1.7.5/toolchains/gcc_arm/7.2.1_2017q4/bin/../lib/gcc/arm-none-eabi/7.2.1/../../../../arm-none-eabi/lib/thumb/v7e-m/fpv4-sp/hard\libg_nano.a(lib_a-nano-vfprintf_i.o)
 .rodata._get_semihosting_exts.str1.1
                0x00007747       0x16 c:/renesas/synergy/e2studio_v7.5.1_ssp_v1.7.5/toolchains/gcc_arm/7.2.1_2017q4/bin/../lib/gcc/arm-none-eabi/7.2.1/../../../../arm-none-eabi/lib/thumb/v7e-m/fpv4-sp/hard\librdimon_nano.a(rdimon-syscalls.o)
 .rodata.initialise_monitor_handles.str1.1
                0x0000775d        0x4 c:/renesas/synergy/e2studio_v7.5.1_ssp_v1.7.5/toolchains/gcc_arm/7.2.1_2017q4/bin/../lib/gcc/arm-none-eabi/7.2.1/../../../../arm-none-eabi/lib/thumb/v7e-m/fpv4-sp/hard\librdimon_nano.a(rdimon-syscalls.o)
                0x00007761                __usb_dev_descriptor_start_fs = .
 *(.usb_device_desc_fs*)
                0x00007761                __usb_cfg_descriptor_start_fs = .
 *(.usb_config_desc_fs*)
                0x00007761                __usb_interface_descriptor_start_fs = .
 *(.usb_interface_desc_fs*)
                0x00007761                __usb_descriptor_end_fs = .
                0x00007761                __usb_dev_descriptor_start_hs = .
 *(.usb_device_desc_hs*)
                0x00007761                __usb_cfg_descriptor_start_hs = .
 *(.usb_config_desc_hs*)
                0x00007761                __usb_interface_descriptor_start_hs = .
 *(.usb_interface_desc_hs*)
                0x00007761                __usb_descriptor_end_hs = .
 *(.eh_frame*)
 *fill*         0x00007761        0x3 ff
 .eh_frame      0x00007764        0x0 c:/renesas/synergy/e2studio_v7.5.1_ssp_v1.7.5/toolchains/gcc_arm/7.2.1_2017q4/bin/../lib/gcc/arm-none-eabi/7.2.1/thumb/v7e-m/fpv4-sp/hard/crtbegin.o
 .eh_frame      0x00007764        0x4 c:/renesas/synergy/e2studio_v7.5.1_ssp_v1.7.5/toolchains/gcc_arm/7.2.1_2017q4/bin/../lib/gcc/arm-none-eabi/7.2.1/thumb/v7e-m/fpv4-sp/hard/crtend.o
                0x00007768                __ROM_End = .
                0x00000054                __Vectors_Size = (__Vectors_End - __Vectors)
                0x00000028                __Vector_Info_Size = (__Vector_Info_End - __Vector_Info_Start)
                0x000001b0                __Lock_Lookup_Size = (__Lock_Lookup_End - __Lock_Lookup_Start)

.glue_7         0x00007768        0x0
 .glue_7        0x00007768        0x0 linker stubs

.glue_7t        0x00007768        0x0
 .glue_7t       0x00007768        0x0 linker stubs

.vfp11_veneer   0x00007768        0x0
 .vfp11_veneer  0x00007768        0x0 linker stubs

.v4_bx          0x00007768        0x0
 .v4_bx         0x00007768        0x0 linker stubs

.iplt           0x00007768        0x0
 .iplt          0x00007768        0x0 c:/renesas/synergy/e2studio_v7.5.1_ssp_v1.7.5/toolchains/gcc_arm/7.2.1_2017q4/bin/../lib/gcc/arm-none-eabi/7.2.1/thumb/v7e-m/fpv4-sp/hard/crtbegin.o

.ARM.extab
 *(.ARM.extab* .gnu.linkonce.armextab.*)
                0x00007768                __exidx_start = .

.ARM.exidx
 *(.ARM.exidx* .gnu.linkonce.armexidx.*)
                0x00007768                __exidx_end = .
                0x00007768                __etext = .

.ssp_dtc_vector_table
                0x1ffe0000        0x0
                0x1ffe0000                . = ORIGIN (RAM)
 *(.ssp_dtc_vector_table)

.data           0x1ffe0000       0xe4 load address 0x00007768
                0x1ffe0000                __data_start__ = .
 *(.r_flash_hp_config_set_area)
                0x1ffe0000                . = ALIGN (0x4)
                0x1ffe0000                __Code_In_RAM_Start = .
 *(.code_in_ram*)
                0x1ffe0000                __Code_In_RAM_End = .
 *(vtable)
 *(.data.*)
 .data._tx_thread_system_state
                0x1ffe0000        0x4 C:\Users\kirti\PK_S5D9\verify\synergy\ssp\src\framework\el\tx\cm4_gcc\libtx.a(tx_thread_initialize.o)
                0x1ffe0000                _tx_thread_system_state
 .data._impure_ptr
                0x1ffe0004        0x4 c:/renesas/synergy/e2studio_v7.5.1_ssp_v1.7.5/toolchains/gcc_arm/7.2.1_2017q4/bin/../lib/gcc/arm-none-eabi/7.2.1/../../../../arm-none-eabi/lib/thumb/v7e-m/fpv4-sp/hard\libg_nano.a(lib_a-impure.o)
                0x1ffe0004                _impure_ptr
 .data.impure_data
                0x1ffe0008       0x60 c:/renesas/synergy/e2studio_v7.5.1_ssp_v1.7.5/toolchains/gcc_arm/7.2.1_2017q4/bin/../lib/gcc/arm-none-eabi/7.2.1/../../../../arm-none-eabi/lib/thumb/v7e-m/fpv4-sp/hard\libg_nano.a(lib_a-impure.o)
 .data.supports_ext_exit_extended
                0x1ffe0068        0x4 c:/renesas/synergy/e2studio_v7.5.1_ssp_v1.7.5/toolchains/gcc_arm/7.2.1_2017q4/bin/../lib/gcc/arm-none-eabi/7.2.1/../../../../arm-none-eabi/lib/thumb/v7e-m/fpv4-sp/hard\librdimon_nano.a(rdimon-syscalls.o)
 .data.supports_ext_stdout_stderr
                0x1ffe006c        0x4 c:/renesas/synergy/e2studio_v7.5.1_ssp_v1.7.5/toolchains/gcc_arm/7.2.1_2017q4/bin/../lib/gcc/arm-none-eabi/7.2.1/../../../../arm-none-eabi/lib/thumb/v7e-m/fpv4-sp/hard\librdimon_nano.a(rdimon-syscalls.o)
                0x1ffe0070                . = ALIGN (0x4)
                0x1ffe0070                PROVIDE (__preinit_array_start, .)
 *(.preinit_array)
                0x1ffe0070                PROVIDE (__preinit_array_end, .)
                0x1ffe0070                . = ALIGN (0x4)
                0x1ffe0070                PROVIDE (__init_array_start, .)
 *(SORT_BY_NAME(.init_array.*))
 *(.init_array)
 .init_array    0x1ffe0070        0x4 c:/renesas/synergy/e2studio_v7.5.1_ssp_v1.7.5/toolchains/gcc_arm/7.2.1_2017q4/bin/../lib/gcc/arm-none-eabi/7.2.1/thumb/v7e-m/fpv4-sp/hard/crtbegin.o
                0x1ffe0074                PROVIDE (__init_array_end, .)
                0x1ffe0074                . = ALIGN (0x4)
                [!provide]                PROVIDE (__fini_array_start, .)
 *(SORT_BY_NAME(.fini_array.*))
 *(.fini_array)
 .fini_array    0x1ffe0074        0x4 c:/renesas/synergy/e2studio_v7.5.1_ssp_v1.7.5/toolchains/gcc_arm/7.2.1_2017q4/bin/../lib/gcc/arm-none-eabi/7.2.1/thumb/v7e-m/fpv4-sp/hard/crtbegin.o
                [!provide]                PROVIDE (__fini_array_end, .)
 *(.jcr*)
                0x1ffe0078                __Lock_Start = .
 *(SORT_BY_NAME(.hw_lock*))
 .hw_lock.ADC_0U_0U
                0x1ffe0078        0x1 ./synergy/ssp/src/bsp/mcu/s5d9/bsp_hw_locks.o
                0x1ffe0078                g_hw_lock_ADC_0U_0U
 .hw_lock.ADC_0U_1U
                0x1ffe0079        0x1 ./synergy/ssp/src/bsp/mcu/s5d9/bsp_hw_locks.o
                0x1ffe0079                g_hw_lock_ADC_0U_1U
 .hw_lock.AGT_0U_0U
                0x1ffe007a        0x1 ./synergy/ssp/src/bsp/mcu/s5d9/bsp_hw_locks.o
                0x1ffe007a                g_hw_lock_AGT_0U_0U
 .hw_lock.AGT_0U_1U
                0x1ffe007b        0x1 ./synergy/ssp/src/bsp/mcu/s5d9/bsp_hw_locks.o
                0x1ffe007b                g_hw_lock_AGT_0U_1U
 .hw_lock.BSC_0U_1U
                0x1ffe007c        0x1 ./synergy/ssp/src/bsp/mcu/s5d9/bsp_hw_locks.o
                0x1ffe007c                g_hw_lock_BSC_0U_1U
 .hw_lock.CAC_0U_0U
                0x1ffe007d        0x1 ./synergy/ssp/src/bsp/mcu/s5d9/bsp_hw_locks.o
                0x1ffe007d                g_hw_lock_CAC_0U_0U
 .hw_lock.CAN_0U_0U
                0x1ffe007e        0x1 ./synergy/ssp/src/bsp/mcu/s5d9/bsp_hw_locks.o
                0x1ffe007e                g_hw_lock_CAN_0U_0U
 .hw_lock.CAN_0U_1U
                0x1ffe007f        0x1 ./synergy/ssp/src/bsp/mcu/s5d9/bsp_hw_locks.o
                0x1ffe007f                g_hw_lock_CAN_0U_1U
 .hw_lock.COMP_HS_0U_0U
                0x1ffe0080        0x1 ./synergy/ssp/src/bsp/mcu/s5d9/bsp_hw_locks.o
                0x1ffe0080                g_hw_lock_COMP_HS_0U_0U
 .hw_lock.COMP_HS_0U_1U
                0x1ffe0081        0x1 ./synergy/ssp/src/bsp/mcu/s5d9/bsp_hw_locks.o
                0x1ffe0081                g_hw_lock_COMP_HS_0U_1U
 .hw_lock.COMP_HS_0U_2U
                0x1ffe0082        0x1 ./synergy/ssp/src/bsp/mcu/s5d9/bsp_hw_locks.o
                0x1ffe0082                g_hw_lock_COMP_HS_0U_2U
 .hw_lock.COMP_HS_0U_3U
                0x1ffe0083        0x1 ./synergy/ssp/src/bsp/mcu/s5d9/bsp_hw_locks.o
                0x1ffe0083                g_hw_lock_COMP_HS_0U_3U
 .hw_lock.COMP_HS_0U_4U
                0x1ffe0084        0x1 ./synergy/ssp/src/bsp/mcu/s5d9/bsp_hw_locks.o
                0x1ffe0084                g_hw_lock_COMP_HS_0U_4U
 .hw_lock.COMP_HS_0U_5U
                0x1ffe0085        0x1 ./synergy/ssp/src/bsp/mcu/s5d9/bsp_hw_locks.o
                0x1ffe0085                g_hw_lock_COMP_HS_0U_5U
 .hw_lock.CRC_0U_0U
                0x1ffe0086        0x1 ./synergy/ssp/src/bsp/mcu/s5d9/bsp_hw_locks.o
                0x1ffe0086                g_hw_lock_CRC_0U_0U
 .hw_lock.CTSU_0U_0U
                0x1ffe0087        0x1 ./synergy/ssp/src/bsp/mcu/s5d9/bsp_hw_locks.o
                0x1ffe0087                g_hw_lock_CTSU_0U_0U
 .hw_lock.DAAD_0U_0U
                0x1ffe0088        0x1 ./synergy/ssp/src/bsp/mcu/s5d9/bsp_hw_locks.o
                0x1ffe0088                g_hw_lock_DAAD_0U_0U
 .hw_lock.DAC_0U_0U
                0x1ffe0089        0x1 ./synergy/ssp/src/bsp/mcu/s5d9/bsp_hw_locks.o
                0x1ffe0089                g_hw_lock_DAC_0U_0U
 .hw_lock.DAC_0U_1U
                0x1ffe008a        0x1 ./synergy/ssp/src/bsp/mcu/s5d9/bsp_hw_locks.o
                0x1ffe008a                g_hw_lock_DAC_0U_1U
 .hw_lock.DMAC_0U_0U
                0x1ffe008b        0x1 ./synergy/ssp/src/bsp/mcu/s5d9/bsp_hw_locks.o
                0x1ffe008b                g_hw_lock_DMAC_0U_0U
 .hw_lock.DMAC_0U_1U
                0x1ffe008c        0x1 ./synergy/ssp/src/bsp/mcu/s5d9/bsp_hw_locks.o
                0x1ffe008c                g_hw_lock_DMAC_0U_1U
 .hw_lock.DMAC_0U_2U
                0x1ffe008d        0x1 ./synergy/ssp/src/bsp/mcu/s5d9/bsp_hw_locks.o
                0x1ffe008d                g_hw_lock_DMAC_0U_2U
 .hw_lock.DMAC_0U_3U
                0x1ffe008e        0x1 ./synergy/ssp/src/bsp/mcu/s5d9/bsp_hw_locks.o
                0x1ffe008e                g_hw_lock_DMAC_0U_3U
 .hw_lock.DMAC_0U_4U
                0x1ffe008f        0x1 ./synergy/ssp/src/bsp/mcu/s5d9/bsp_hw_locks.o
                0x1ffe008f                g_hw_lock_DMAC_0U_4U
 .hw_lock.DMAC_0U_5U
                0x1ffe0090        0x1 ./synergy/ssp/src/bsp/mcu/s5d9/bsp_hw_locks.o
                0x1ffe0090                g_hw_lock_DMAC_0U_5U
 .hw_lock.DMAC_0U_6U
                0x1ffe0091        0x1 ./synergy/ssp/src/bsp/mcu/s5d9/bsp_hw_locks.o
                0x1ffe0091                g_hw_lock_DMAC_0U_6U
 .hw_lock.DMAC_0U_7U
                0x1ffe0092        0x1 ./synergy/ssp/src/bsp/mcu/s5d9/bsp_hw_locks.o
                0x1ffe0092                g_hw_lock_DMAC_0U_7U
 .hw_lock.DOC_0U_0U
                0x1ffe0093        0x1 ./synergy/ssp/src/bsp/mcu/s5d9/bsp_hw_locks.o
                0x1ffe0093                g_hw_lock_DOC_0U_0U
 .hw_lock.DRW_0U_0U
                0x1ffe0094        0x1 ./synergy/ssp/src/bsp/mcu/s5d9/bsp_hw_locks.o
                0x1ffe0094                g_hw_lock_DRW_0U_0U
 .hw_lock.DTC_0U_0U
                0x1ffe0095        0x1 ./synergy/ssp/src/bsp/mcu/s5d9/bsp_hw_locks.o
                0x1ffe0095                g_hw_lock_DTC_0U_0U
 .hw_lock.ELC_0U_0U
                0x1ffe0096        0x1 ./synergy/ssp/src/bsp/mcu/s5d9/bsp_hw_locks.o
                0x1ffe0096                g_hw_lock_ELC_0U_0U
 .hw_lock.EPTPC_0U_0U
                0x1ffe0097        0x1 ./synergy/ssp/src/bsp/mcu/s5d9/bsp_hw_locks.o
                0x1ffe0097                g_hw_lock_EPTPC_0U_0U
 .hw_lock.ETHER_0U_0U
                0x1ffe0098        0x1 ./synergy/ssp/src/bsp/mcu/s5d9/bsp_hw_locks.o
                0x1ffe0098                g_hw_lock_ETHER_0U_0U
 .hw_lock.ETHER_0U_1U
                0x1ffe0099        0x1 ./synergy/ssp/src/bsp/mcu/s5d9/bsp_hw_locks.o
                0x1ffe0099                g_hw_lock_ETHER_0U_1U
 .hw_lock.FCU_0U_0U
                0x1ffe009a        0x1 ./synergy/ssp/src/bsp/mcu/s5d9/bsp_hw_locks.o
                0x1ffe009a                g_hw_lock_FCU_0U_0U
 .hw_lock.GLCDC_0U_0U
                0x1ffe009b        0x1 ./synergy/ssp/src/bsp/mcu/s5d9/bsp_hw_locks.o
                0x1ffe009b                g_hw_lock_GLCDC_0U_0U
 .hw_lock.GPT_0U_0U
                0x1ffe009c        0x1 ./synergy/ssp/src/bsp/mcu/s5d9/bsp_hw_locks.o
                0x1ffe009c                g_hw_lock_GPT_0U_0U
 .hw_lock.GPT_0U_10U
                0x1ffe009d        0x1 ./synergy/ssp/src/bsp/mcu/s5d9/bsp_hw_locks.o
                0x1ffe009d                g_hw_lock_GPT_0U_10U
 .hw_lock.GPT_0U_11U
                0x1ffe009e        0x1 ./synergy/ssp/src/bsp/mcu/s5d9/bsp_hw_locks.o
                0x1ffe009e                g_hw_lock_GPT_0U_11U
 .hw_lock.GPT_0U_12U
                0x1ffe009f        0x1 ./synergy/ssp/src/bsp/mcu/s5d9/bsp_hw_locks.o
                0x1ffe009f                g_hw_lock_GPT_0U_12U
 .hw_lock.GPT_0U_13U
                0x1ffe00a0        0x1 ./synergy/ssp/src/bsp/mcu/s5d9/bsp_hw_locks.o
                0x1ffe00a0                g_hw_lock_GPT_0U_13U
 .hw_lock.GPT_0U_1U
                0x1ffe00a1        0x1 ./synergy/ssp/src/bsp/mcu/s5d9/bsp_hw_locks.o
                0x1ffe00a1                g_hw_lock_GPT_0U_1U
 .hw_lock.GPT_0U_2U
                0x1ffe00a2        0x1 ./synergy/ssp/src/bsp/mcu/s5d9/bsp_hw_locks.o
                0x1ffe00a2                g_hw_lock_GPT_0U_2U
 .hw_lock.GPT_0U_3U
                0x1ffe00a3        0x1 ./synergy/ssp/src/bsp/mcu/s5d9/bsp_hw_locks.o
                0x1ffe00a3                g_hw_lock_GPT_0U_3U
 .hw_lock.GPT_0U_4U
                0x1ffe00a4        0x1 ./synergy/ssp/src/bsp/mcu/s5d9/bsp_hw_locks.o
                0x1ffe00a4                g_hw_lock_GPT_0U_4U
 .hw_lock.GPT_0U_5U
                0x1ffe00a5        0x1 ./synergy/ssp/src/bsp/mcu/s5d9/bsp_hw_locks.o
                0x1ffe00a5                g_hw_lock_GPT_0U_5U
 .hw_lock.GPT_0U_6U
                0x1ffe00a6        0x1 ./synergy/ssp/src/bsp/mcu/s5d9/bsp_hw_locks.o
                0x1ffe00a6                g_hw_lock_GPT_0U_6U
 .hw_lock.GPT_0U_7U
                0x1ffe00a7        0x1 ./synergy/ssp/src/bsp/mcu/s5d9/bsp_hw_locks.o
                0x1ffe00a7                g_hw_lock_GPT_0U_7U
 .hw_lock.GPT_0U_8U
                0x1ffe00a8        0x1 ./synergy/ssp/src/bsp/mcu/s5d9/bsp_hw_locks.o
                0x1ffe00a8                g_hw_lock_GPT_0U_8U
 .hw_lock.GPT_0U_9U
                0x1ffe00a9        0x1 ./synergy/ssp/src/bsp/mcu/s5d9/bsp_hw_locks.o
                0x1ffe00a9                g_hw_lock_GPT_0U_9U
 .hw_lock.ICU_0U_0U
                0x1ffe00aa        0x1 ./synergy/ssp/src/bsp/mcu/s5d9/bsp_hw_locks.o
                0x1ffe00aa                g_hw_lock_ICU_0U_0U
 .hw_lock.ICU_0U_10U
                0x1ffe00ab        0x1 ./synergy/ssp/src/bsp/mcu/s5d9/bsp_hw_locks.o
                0x1ffe00ab                g_hw_lock_ICU_0U_10U
 .hw_lock.ICU_0U_11U
                0x1ffe00ac        0x1 ./synergy/ssp/src/bsp/mcu/s5d9/bsp_hw_locks.o
                0x1ffe00ac                g_hw_lock_ICU_0U_11U
 .hw_lock.ICU_0U_12U
                0x1ffe00ad        0x1 ./synergy/ssp/src/bsp/mcu/s5d9/bsp_hw_locks.o
                0x1ffe00ad                g_hw_lock_ICU_0U_12U
 .hw_lock.ICU_0U_13U
                0x1ffe00ae        0x1 ./synergy/ssp/src/bsp/mcu/s5d9/bsp_hw_locks.o
                0x1ffe00ae                g_hw_lock_ICU_0U_13U
 .hw_lock.ICU_0U_14U
                0x1ffe00af        0x1 ./synergy/ssp/src/bsp/mcu/s5d9/bsp_hw_locks.o
                0x1ffe00af                g_hw_lock_ICU_0U_14U
 .hw_lock.ICU_0U_15U
                0x1ffe00b0        0x1 ./synergy/ssp/src/bsp/mcu/s5d9/bsp_hw_locks.o
                0x1ffe00b0                g_hw_lock_ICU_0U_15U
 .hw_lock.ICU_0U_1U
                0x1ffe00b1        0x1 ./synergy/ssp/src/bsp/mcu/s5d9/bsp_hw_locks.o
                0x1ffe00b1                g_hw_lock_ICU_0U_1U
 .hw_lock.ICU_0U_2U
                0x1ffe00b2        0x1 ./synergy/ssp/src/bsp/mcu/s5d9/bsp_hw_locks.o
                0x1ffe00b2                g_hw_lock_ICU_0U_2U
 .hw_lock.ICU_0U_3U
                0x1ffe00b3        0x1 ./synergy/ssp/src/bsp/mcu/s5d9/bsp_hw_locks.o
                0x1ffe00b3                g_hw_lock_ICU_0U_3U
 .hw_lock.ICU_0U_4U
                0x1ffe00b4        0x1 ./synergy/ssp/src/bsp/mcu/s5d9/bsp_hw_locks.o
                0x1ffe00b4                g_hw_lock_ICU_0U_4U
 .hw_lock.ICU_0U_5U
                0x1ffe00b5        0x1 ./synergy/ssp/src/bsp/mcu/s5d9/bsp_hw_locks.o
                0x1ffe00b5                g_hw_lock_ICU_0U_5U
 .hw_lock.ICU_0U_6U
                0x1ffe00b6        0x1 ./synergy/ssp/src/bsp/mcu/s5d9/bsp_hw_locks.o
                0x1ffe00b6                g_hw_lock_ICU_0U_6U
 .hw_lock.ICU_0U_7U
                0x1ffe00b7        0x1 ./synergy/ssp/src/bsp/mcu/s5d9/bsp_hw_locks.o
                0x1ffe00b7                g_hw_lock_ICU_0U_7U
 .hw_lock.ICU_0U_8U
                0x1ffe00b8        0x1 ./synergy/ssp/src/bsp/mcu/s5d9/bsp_hw_locks.o
                0x1ffe00b8                g_hw_lock_ICU_0U_8U
 .hw_lock.ICU_0U_9U
                0x1ffe00b9        0x1 ./synergy/ssp/src/bsp/mcu/s5d9/bsp_hw_locks.o
                0x1ffe00b9                g_hw_lock_ICU_0U_9U
 .hw_lock.IIC_0U_0U
                0x1ffe00ba        0x1 ./synergy/ssp/src/bsp/mcu/s5d9/bsp_hw_locks.o
                0x1ffe00ba                g_hw_lock_IIC_0U_0U
 .hw_lock.IIC_0U_1U
                0x1ffe00bb        0x1 ./synergy/ssp/src/bsp/mcu/s5d9/bsp_hw_locks.o
                0x1ffe00bb                g_hw_lock_IIC_0U_1U
 .hw_lock.IIC_0U_2U
                0x1ffe00bc        0x1 ./synergy/ssp/src/bsp/mcu/s5d9/bsp_hw_locks.o
                0x1ffe00bc                g_hw_lock_IIC_0U_2U
 .hw_lock.IRDA_0U_0U
                0x1ffe00bd        0x1 ./synergy/ssp/src/bsp/mcu/s5d9/bsp_hw_locks.o
                0x1ffe00bd                g_hw_lock_IRDA_0U_0U
 .hw_lock.IWDT_0U_0U
                0x1ffe00be        0x1 ./synergy/ssp/src/bsp/mcu/s5d9/bsp_hw_locks.o
                0x1ffe00be                g_hw_lock_IWDT_0U_0U
 .hw_lock.JPEG_0U_0U
                0x1ffe00bf        0x1 ./synergy/ssp/src/bsp/mcu/s5d9/bsp_hw_locks.o
                0x1ffe00bf                g_hw_lock_JPEG_0U_0U
 .hw_lock.KEY_0U_0U
                0x1ffe00c0        0x1 ./synergy/ssp/src/bsp/mcu/s5d9/bsp_hw_locks.o
                0x1ffe00c0                g_hw_lock_KEY_0U_0U
 .hw_lock.LPM_1U_0U
                0x1ffe00c1        0x1 ./synergy/ssp/src/bsp/mcu/s5d9/bsp_hw_locks.o
                0x1ffe00c1                g_hw_lock_LPM_1U_0U
 .hw_lock.LVD_0U_0U
                0x1ffe00c2        0x1 ./synergy/ssp/src/bsp/mcu/s5d9/bsp_hw_locks.o
                0x1ffe00c2                g_hw_lock_LVD_0U_0U
 .hw_lock.LVD_0U_1U
                0x1ffe00c3        0x1 ./synergy/ssp/src/bsp/mcu/s5d9/bsp_hw_locks.o
                0x1ffe00c3                g_hw_lock_LVD_0U_1U
 .hw_lock.MMF_0U_0U
                0x1ffe00c4        0x1 ./synergy/ssp/src/bsp/mcu/s5d9/bsp_hw_locks.o
                0x1ffe00c4                g_hw_lock_MMF_0U_0U
 .hw_lock.MPU_0U_0U
                0x1ffe00c5        0x1 ./synergy/ssp/src/bsp/mcu/s5d9/bsp_hw_locks.o
                0x1ffe00c5                g_hw_lock_MPU_0U_0U
 .hw_lock.OPS_0U_0U
                0x1ffe00c6        0x1 ./synergy/ssp/src/bsp/mcu/s5d9/bsp_hw_locks.o
                0x1ffe00c6                g_hw_lock_OPS_0U_0U
 .hw_lock.PDC_0U_0U
                0x1ffe00c7        0x1 ./synergy/ssp/src/bsp/mcu/s5d9/bsp_hw_locks.o
                0x1ffe00c7                g_hw_lock_PDC_0U_0U
 .hw_lock.POEG_0U_0U
                0x1ffe00c8        0x1 ./synergy/ssp/src/bsp/mcu/s5d9/bsp_hw_locks.o
                0x1ffe00c8                g_hw_lock_POEG_0U_0U
 .hw_lock.POEG_0U_1U
                0x1ffe00c9        0x1 ./synergy/ssp/src/bsp/mcu/s5d9/bsp_hw_locks.o
                0x1ffe00c9                g_hw_lock_POEG_0U_1U
 .hw_lock.POEG_0U_2U
                0x1ffe00ca        0x1 ./synergy/ssp/src/bsp/mcu/s5d9/bsp_hw_locks.o
                0x1ffe00ca                g_hw_lock_POEG_0U_2U
 .hw_lock.POEG_0U_3U
                0x1ffe00cb        0x1 ./synergy/ssp/src/bsp/mcu/s5d9/bsp_hw_locks.o
                0x1ffe00cb                g_hw_lock_POEG_0U_3U
 .hw_lock.QSPI_0U_0U
                0x1ffe00cc        0x1 ./synergy/ssp/src/bsp/mcu/s5d9/bsp_hw_locks.o
                0x1ffe00cc                g_hw_lock_QSPI_0U_0U
 .hw_lock.RTC_0U_0U
                0x1ffe00cd        0x1 ./synergy/ssp/src/bsp/mcu/s5d9/bsp_hw_locks.o
                0x1ffe00cd                g_hw_lock_RTC_0U_0U
 .hw_lock.SCE_0U_0U
                0x1ffe00ce        0x1 ./synergy/ssp/src/bsp/mcu/s5d9/bsp_hw_locks.o
                0x1ffe00ce                g_hw_lock_SCE_0U_0U
 .hw_lock.SCI_0U_0U
                0x1ffe00cf        0x1 ./synergy/ssp/src/bsp/mcu/s5d9/bsp_hw_locks.o
                0x1ffe00cf                g_hw_lock_SCI_0U_0U
 .hw_lock.SCI_0U_1U
                0x1ffe00d0        0x1 ./synergy/ssp/src/bsp/mcu/s5d9/bsp_hw_locks.o
                0x1ffe00d0                g_hw_lock_SCI_0U_1U
 .hw_lock.SCI_0U_2U
                0x1ffe00d1        0x1 ./synergy/ssp/src/bsp/mcu/s5d9/bsp_hw_locks.o
                0x1ffe00d1                g_hw_lock_SCI_0U_2U
 .hw_lock.SCI_0U_3U
                0x1ffe00d2        0x1 ./synergy/ssp/src/bsp/mcu/s5d9/bsp_hw_locks.o
                0x1ffe00d2                g_hw_lock_SCI_0U_3U
 .hw_lock.SCI_0U_4U
                0x1ffe00d3        0x1 ./synergy/ssp/src/bsp/mcu/s5d9/bsp_hw_locks.o
                0x1ffe00d3                g_hw_lock_SCI_0U_4U
 .hw_lock.SCI_0U_5U
                0x1ffe00d4        0x1 ./synergy/ssp/src/bsp/mcu/s5d9/bsp_hw_locks.o
                0x1ffe00d4                g_hw_lock_SCI_0U_5U
 .hw_lock.SCI_0U_6U
                0x1ffe00d5        0x1 ./synergy/ssp/src/bsp/mcu/s5d9/bsp_hw_locks.o
                0x1ffe00d5                g_hw_lock_SCI_0U_6U
 .hw_lock.SCI_0U_7U
                0x1ffe00d6        0x1 ./synergy/ssp/src/bsp/mcu/s5d9/bsp_hw_locks.o
                0x1ffe00d6                g_hw_lock_SCI_0U_7U
 .hw_lock.SCI_0U_8U
                0x1ffe00d7        0x1 ./synergy/ssp/src/bsp/mcu/s5d9/bsp_hw_locks.o
                0x1ffe00d7                g_hw_lock_SCI_0U_8U
 .hw_lock.SCI_0U_9U
                0x1ffe00d8        0x1 ./synergy/ssp/src/bsp/mcu/s5d9/bsp_hw_locks.o
                0x1ffe00d8                g_hw_lock_SCI_0U_9U
 .hw_lock.SDHIMMC_0U_0U
                0x1ffe00d9        0x1 ./synergy/ssp/src/bsp/mcu/s5d9/bsp_hw_locks.o
                0x1ffe00d9                g_hw_lock_SDHIMMC_0U_0U
 .hw_lock.SDHIMMC_0U_1U
                0x1ffe00da        0x1 ./synergy/ssp/src/bsp/mcu/s5d9/bsp_hw_locks.o
                0x1ffe00da                g_hw_lock_SDHIMMC_0U_1U
 .hw_lock.SPI_0U_0U
                0x1ffe00db        0x1 ./synergy/ssp/src/bsp/mcu/s5d9/bsp_hw_locks.o
                0x1ffe00db                g_hw_lock_SPI_0U_0U
 .hw_lock.SPI_0U_1U
                0x1ffe00dc        0x1 ./synergy/ssp/src/bsp/mcu/s5d9/bsp_hw_locks.o
                0x1ffe00dc                g_hw_lock_SPI_0U_1U
 .hw_lock.SRC_0U_0U
                0x1ffe00dd        0x1 ./synergy/ssp/src/bsp/mcu/s5d9/bsp_hw_locks.o
                0x1ffe00dd                g_hw_lock_SRC_0U_0U
 .hw_lock.SSI_0U_0U
                0x1ffe00de        0x1 ./synergy/ssp/src/bsp/mcu/s5d9/bsp_hw_locks.o
                0x1ffe00de                g_hw_lock_SSI_0U_0U
 .hw_lock.SSI_0U_1U
                0x1ffe00df        0x1 ./synergy/ssp/src/bsp/mcu/s5d9/bsp_hw_locks.o
                0x1ffe00df                g_hw_lock_SSI_0U_1U
 .hw_lock.TSN_0U_0U
                0x1ffe00e0        0x1 ./synergy/ssp/src/bsp/mcu/s5d9/bsp_hw_locks.o
                0x1ffe00e0                g_hw_lock_TSN_0U_0U
 .hw_lock.USB_0U_0U
                0x1ffe00e1        0x1 ./synergy/ssp/src/bsp/mcu/s5d9/bsp_hw_locks.o
                0x1ffe00e1                g_hw_lock_USB_0U_0U
 .hw_lock.USB_1U_0U
                0x1ffe00e2        0x1 ./synergy/ssp/src/bsp/mcu/s5d9/bsp_hw_locks.o
                0x1ffe00e2                g_hw_lock_USB_1U_0U
 .hw_lock.WDT_0U_0U
                0x1ffe00e3        0x1 ./synergy/ssp/src/bsp/mcu/s5d9/bsp_hw_locks.o
                0x1ffe00e3                g_hw_lock_WDT_0U_0U
                0x1ffe00e4                __Lock_End = .
                0x1ffe00e4                . = ALIGN (0x4)
                0x1ffe00e4                __data_end__ = .
                0x0000006c                __Lock_Size = (__Lock_End - __Lock_Start)

.igot.plt       0x1ffe00e4        0x0 load address 0x0000784c
 .igot.plt      0x1ffe00e4        0x0 c:/renesas/synergy/e2studio_v7.5.1_ssp_v1.7.5/toolchains/gcc_arm/7.2.1_2017q4/bin/../lib/gcc/arm-none-eabi/7.2.1/thumb/v7e-m/fpv4-sp/hard/crtbegin.o

.qspi_flash     0x60000000        0x0
                0x60000000                __qspi_flash_start__ = .
 *(.qspi_flash*)
                0x60000000                __qspi_flash_end__ = .
                0x00000000                __qspi_flash_code_size__ = (__qspi_flash_end__ - __qspi_flash_start__)
                0x0000784c                __qspi_flash_code_addr__ = (__etext + (__data_end__ - __data_start__))

.qspi_non_retentive
                0x60000000        0x0 load address 0x0000784c
                0x60000000                __qspi_non_retentive_start__ = .
 *(.qspi_non_retentive*)
                0x60000000                __qspi_non_retentive_end__ = .
                0x00000000                __qspi_non_retentive_size__ = (__qspi_non_retentive_end__ - __qspi_non_retentive_start__)
                0x04000000                __qspi_region_max_size__ = 0x4000000
                0x60000000                __qspi_region_start_address__ = __qspi_flash_start__
                0x64000000                __qspi_region_end_address__ = (__qspi_flash_start__ + __qspi_region_max_size__)

.noinit         0x1ffe00e8       0x40
                0x1ffe00e8                . = ALIGN (0x4)
                0x1ffe00e8                __noinit_start = .
 *(.noinit*)
 .noinit        0x1ffe00e8       0x14 ./synergy/ssp/src/driver/r_ioport/r_ioport.o
 .noinit        0x1ffe00fc        0x4 ./synergy/ssp/src/driver/r_fmi/r_fmi.o
 .noinit        0x1ffe0100       0x20 ./synergy/ssp/src/driver/r_cgc/r_cgc.o
                0x1ffe0100                gp_cgc_feature
 .noinit        0x1ffe0120        0x8 ./synergy/ssp/src/bsp/cmsis/Device/RENESAS/S5D9/Source/system_S5D9.o
                0x1ffe0128                __noinit_end = .

.bss            0x1ffe0128      0x508
                0x1ffe0128                . = ALIGN (0x4)
                0x1ffe0128                __bss_start__ = .
 *(.bss*)
 .bss           0x1ffe0128       0x1c c:/renesas/synergy/e2studio_v7.5.1_ssp_v1.7.5/toolchains/gcc_arm/7.2.1_2017q4/bin/../lib/gcc/arm-none-eabi/7.2.1/thumb/v7e-m/fpv4-sp/hard/crtbegin.o
 .bss.g_protect_pfswe_counter
                0x1ffe0144        0x2 ./synergy/ssp/src/driver/r_ioport/r_ioport.o
                0x1ffe0144                g_protect_pfswe_counter
 *fill*         0x1ffe0146        0x2 
 .bss.gp_elc_reg
                0x1ffe0148        0x4 ./synergy/ssp/src/driver/r_elc/r_elc.o
 .bss.g_adc_valid_channels
                0x1ffe014c        0x8 ./synergy/ssp/src/driver/r_adc/r_adc.o
 .bss.new_rom_wait_state.23771
                0x1ffe0154        0x1 ./synergy/ssp/src/bsp/mcu/s5d9/bsp_clocks.o
 *fill*         0x1ffe0155        0x3 
 .bss.g_bsp_group_irq_sources
                0x1ffe0158       0x30 ./synergy/ssp/src/bsp/mcu/s5d9/bsp_group_irq.o
 .bss.g_vector_information_size
                0x1ffe0188        0x4 ./synergy/ssp/src/bsp/mcu/all/bsp_irq.o
                0x1ffe0188                g_vector_information_size
 .bss.g_bsp_lock_lookup_size
                0x1ffe018c        0x4 ./synergy/ssp/src/bsp/mcu/all/bsp_locking.o
 .bss.gp_bsp_lock_lookup
                0x1ffe0190        0x4 ./synergy/ssp/src/bsp/mcu/all/bsp_locking.o
 .bss.gp_bsp_locks
                0x1ffe0194        0x4 ./synergy/ssp/src/bsp/mcu/all/bsp_locking.o
 .bss.g_protect_counters
                0x1ffe0198        0x6 ./synergy/ssp/src/bsp/mcu/all/bsp_register_protection.o
 *fill*         0x1ffe019e        0x2 
 .bss.current_heap_end.23821
                0x1ffe01a0        0x4 ./synergy/ssp/src/bsp/mcu/all/bsp_sbrk.o
 .bss.SystemCoreClock
                0x1ffe01a4        0x4 ./synergy/ssp/src/bsp/cmsis/Device/RENESAS/S5D9/Source/system_S5D9.o
                0x1ffe01a4                SystemCoreClock
 .bss.device_characteristics
                0x1ffe01a8        0x3 ./synergy/board/s5d9_pk/bsp_qspi.o
 *fill*         0x1ffe01ab        0x1 
 .bss.flag_status2
                0x1ffe01ac        0x1 ./synergy/board/s5d9_pk/bsp_qspi.o
 *fill*         0x1ffe01ad        0x3 
 .bss.gp_ctrl_ADC_0_SCAN_END
                0x1ffe01b0        0x4 ./src/synergy_gen/thread0.o
 .bss.gp_ctrl_GPT_0_COUNTER_OVERFLOW
                0x1ffe01b4        0x4 ./src/synergy_gen/thread0.o
 .bss.gp_ctrl_SCI_0_RXI
                0x1ffe01b8        0x4 ./src/synergy_gen/thread0.o
 .bss.gp_ctrl_SCI_0_TEI
                0x1ffe01bc        0x4 ./src/synergy_gen/thread0.o
 .bss.gp_ctrl_SCI_0_TXI
                0x1ffe01c0        0x4 ./src/synergy_gen/thread0.o
 .bss.queue_memory_g_modbus_queue
                0x1ffe01c4       0x14 ./src/synergy_gen/thread0.o
 .bss.queue_memory_g_serial_RX_queue
                0x1ffe01d8       0x14 ./src/synergy_gen/thread0.o
 .bss.adc_data  0x1ffe01ec        0x2 ./src/thread0_entry.o
 *fill*         0x1ffe01ee        0x2 
 .bss.g_prcr    0x1ffe01f0        0x4 C:\Users\kirti\PK_S5D9\verify\synergy\ssp\src\framework\el\tx\cm4_gcc\libtx.a(tx_thread_schedule.o)
 .bss.g_sbycr_ssby
                0x1ffe01f4        0x4 C:\Users\kirti\PK_S5D9\verify\synergy\ssp\src\framework\el\tx\cm4_gcc\libtx.a(tx_thread_schedule.o)
 .bss.__malloc_free_list
                0x1ffe01f8        0x4 c:/renesas/synergy/e2studio_v7.5.1_ssp_v1.7.5/toolchains/gcc_arm/7.2.1_2017q4/bin/../lib/gcc/arm-none-eabi/7.2.1/../../../../arm-none-eabi/lib/thumb/v7e-m/fpv4-sp/hard\libg_nano.a(lib_a-nano-mallocr.o)
                0x1ffe01f8                __malloc_free_list
 .bss.__malloc_sbrk_start
                0x1ffe01fc        0x4 c:/renesas/synergy/e2studio_v7.5.1_ssp_v1.7.5/toolchains/gcc_arm/7.2.1_2017q4/bin/../lib/gcc/arm-none-eabi/7.2.1/../../../../arm-none-eabi/lib/thumb/v7e-m/fpv4-sp/hard\libg_nano.a(lib_a-nano-mallocr.o)
                0x1ffe01fc                __malloc_sbrk_start
 .bss.monitor_stderr
                0x1ffe0200        0x4 c:/renesas/synergy/e2studio_v7.5.1_ssp_v1.7.5/toolchains/gcc_arm/7.2.1_2017q4/bin/../lib/gcc/arm-none-eabi/7.2.1/../../../../arm-none-eabi/lib/thumb/v7e-m/fpv4-sp/hard\librdimon_nano.a(rdimon-syscalls.o)
 .bss.monitor_stdin
                0x1ffe0204        0x4 c:/renesas/synergy/e2studio_v7.5.1_ssp_v1.7.5/toolchains/gcc_arm/7.2.1_2017q4/bin/../lib/gcc/arm-none-eabi/7.2.1/../../../../arm-none-eabi/lib/thumb/v7e-m/fpv4-sp/hard\librdimon_nano.a(rdimon-syscalls.o)
 .bss.monitor_stdout
                0x1ffe0208        0x4 c:/renesas/synergy/e2studio_v7.5.1_ssp_v1.7.5/toolchains/gcc_arm/7.2.1_2017q4/bin/../lib/gcc/arm-none-eabi/7.2.1/../../../../arm-none-eabi/lib/thumb/v7e-m/fpv4-sp/hard\librdimon_nano.a(rdimon-syscalls.o)
 .bss.openfiles
                0x1ffe020c       0xa0 c:/renesas/synergy/e2studio_v7.5.1_ssp_v1.7.5/toolchains/gcc_arm/7.2.1_2017q4/bin/../lib/gcc/arm-none-eabi/7.2.1/../../../../arm-none-eabi/lib/thumb/v7e-m/fpv4-sp/hard\librdimon_nano.a(rdimon-syscalls.o)
 *(COMMON)
 COMMON         0x1ffe02ac       0x24 ./src/synergy_gen/main.o
                0x1ffe02ac                g_ssp_common_initialized
                0x1ffe02b0                g_ssp_common_initialized_semaphore
                0x1ffe02cc                g_ssp_common_thread_count
 COMMON         0x1ffe02d0      0x1cc ./src/synergy_gen/thread0.o
                0x1ffe02d0                g_adc0_ctrl
                0x1ffe0308                g_modbus_queue
                0x1ffe0340                g_transfer0_ctrl
                0x1ffe0350                thread0
                0x1ffe0408                g_uart_semaphore0
                0x1ffe0424                g_uart0_ctrl
                0x1ffe0464                g_serial_RX_queue
 COMMON         0x1ffe049c        0x8 ./src/thread0_entry.o
                0x1ffe049c                led
 COMMON         0x1ffe04a4       0x34 C:\Users\kirti\PK_S5D9\verify\synergy\ssp\src\framework\el\tx\cm4_gcc\libtx.a(tx_initialize_high_level.o)
                0x1ffe04a4                _tx_event_flags_created_ptr
                0x1ffe04a8                _tx_mutex_created_count
                0x1ffe04ac                _tx_mutex_created_ptr
                0x1ffe04b0                _tx_queue_created_count
                0x1ffe04b4                _tx_semaphore_created_ptr
                0x1ffe04b8                _tx_byte_pool_created_ptr
                0x1ffe04bc                _tx_initialize_unused_memory
                0x1ffe04c0                _tx_block_pool_created_count
                0x1ffe04c4                _tx_semaphore_created_count
                0x1ffe04c8                _tx_event_flags_created_count
                0x1ffe04cc                _tx_block_pool_created_ptr
                0x1ffe04d0                _tx_queue_created_ptr
                0x1ffe04d4                _tx_byte_pool_created_count
 COMMON         0x1ffe04d8       0xa8 C:\Users\kirti\PK_S5D9\verify\synergy\ssp\src\framework\el\tx\cm4_gcc\libtx.a(tx_thread_initialize.o)
                0x1ffe04d8                _tx_thread_priority_list
                0x1ffe0558                _tx_thread_mutex_release
                0x1ffe055c                _tx_thread_priority_maps
                0x1ffe0560                _tx_thread_created_ptr
                0x1ffe0564                _tx_build_options
                0x1ffe0568                _tx_thread_created_count
                0x1ffe056c                _tx_thread_system_stack_ptr
                0x1ffe0570                _tx_thread_preempt_disable
                0x1ffe0574                _tx_thread_current_ptr
                0x1ffe0578                _tx_thread_execute_ptr
                0x1ffe057c                _tx_thread_highest_priority
 COMMON         0x1ffe0580       0xac C:\Users\kirti\PK_S5D9\verify\synergy\ssp\src\framework\el\tx\cm4_gcc\libtx.a(tx_timer_initialize.o)
                0x1ffe0580                _tx_timer_current_ptr
                0x1ffe0584                _tx_timer_list
                0x1ffe0604                _tx_timer_expired
                0x1ffe0608                _tx_timer_time_slice
                0x1ffe060c                _tx_timer_list_end
                0x1ffe0610                _tx_timer_processing_active
                0x1ffe0614                _tx_timer_expired_timer_ptr
                0x1ffe0618                _tx_timer_list_start
                0x1ffe061c                _tx_timer_created_ptr
                0x1ffe0620                _tx_timer_created_count
                0x1ffe0624                _tx_timer_expired_time_slice
                0x1ffe0628                _tx_timer_system_clock
 COMMON         0x1ffe062c        0x4 c:/renesas/synergy/e2studio_v7.5.1_ssp_v1.7.5/toolchains/gcc_arm/7.2.1_2017q4/bin/../lib/gcc/arm-none-eabi/7.2.1/../../../../arm-none-eabi/lib/thumb/v7e-m/fpv4-sp/hard\libg_nano.a(lib_a-reent.o)
                0x1ffe062c                errno
                0x1ffe0630                . = ALIGN (0x4)
                0x1ffe0630                __bss_end__ = .

.heap           0x1ffe0630     0x1000
                0x1ffe0630                . = ALIGN (0x8)
 *(.heap_d1)
                0x1ffe0630                . = ALIGN (0x8)
                0x1ffe0630                __HeapBase = .
                0x1ffe0630                __end__ = .
                0x1ffe0630                end = __end__
 *(.heap*)
 .heap          0x1ffe0630     0x1000 ./synergy/ssp/src/bsp/cmsis/Device/RENESAS/S5D9/Source/startup_S5D9.o
                0x1ffe1630                __HeapLimit = .

.stack_dummy    0x1ffe1630      0xc00
                0x1ffe1630                . = ALIGN (0x8)
                0x1ffe1630                __StackLimit = .
 *(.stack)
 .stack         0x1ffe1630      0x800 ./synergy/ssp/src/bsp/cmsis/Device/RENESAS/S5D9/Source/startup_S5D9.o
                0x1ffe1e30                __StackTop = .
 *(.stack*)
 .stack.thread0
                0x1ffe1e30      0x400 ./src/synergy_gen/thread0.o
                0x1ffe2230                __StackTopAll = .
                [!provide]                PROVIDE (__stack, __StackTopAll)
                0x1ffe2230                __RAM_segment_used_end__ = ALIGN (__StackTopAll, 0x4)

.data_flash     0x40100000        0x0
                0x40100000                __Data_Flash_Start = .
 *(.data_flash*)
                0x40100000                __Data_Flash_End = .

.sdram          0x90000000        0x0
                0x90000000                __SDRAM_Start = .
 *(.sdram*)
 *(.frame*)
                0x90000000                __SDRAM_End = .

.id_code_1      0x0100a150       0x10
                0x0100a150                __ID_Codes_Start = .
 *(.id_code_1*)
 .id_code_1     0x0100a150       0x10 ./synergy/ssp/src/bsp/mcu/s5d9/bsp_rom_registers.o
                0x0100a160                __ID_Codes_End = .
OUTPUT(verify.elf elf32-littlearm)

.rel.dyn        0x0100a160        0x0
 .rel.iplt      0x0100a160        0x0 c:/renesas/synergy/e2studio_v7.5.1_ssp_v1.7.5/toolchains/gcc_arm/7.2.1_2017q4/bin/../lib/gcc/arm-none-eabi/7.2.1/thumb/v7e-m/fpv4-sp/hard/crtbegin.o

.ARM.attributes
                0x00000000       0x30
 .ARM.attributes
                0x00000000       0x22 c:/renesas/synergy/e2studio_v7.5.1_ssp_v1.7.5/toolchains/gcc_arm/7.2.1_2017q4/bin/../lib/gcc/arm-none-eabi/7.2.1/thumb/v7e-m/fpv4-sp/hard/crti.o
 .ARM.attributes
                0x00000022       0x34 c:/renesas/synergy/e2studio_v7.5.1_ssp_v1.7.5/toolchains/gcc_arm/7.2.1_2017q4/bin/../lib/gcc/arm-none-eabi/7.2.1/thumb/v7e-m/fpv4-sp/hard/crtbegin.o
 .ARM.attributes
                0x00000056       0x39 ./synergy/ssp/src/driver/r_sci_uart/r_sci_uart.o
 .ARM.attributes
                0x0000008f       0x39 ./synergy/ssp/src/driver/r_ioport/r_ioport.o
 .ARM.attributes
                0x000000c8       0x39 ./synergy/ssp/src/driver/r_gpt/r_gpt.o
 .ARM.attributes
                0x00000101       0x39 ./synergy/ssp/src/driver/r_fmi/r_fmi.o
 .ARM.attributes
                0x0000013a       0x39 ./synergy/ssp/src/driver/r_elc/r_elc.o
 .ARM.attributes
                0x00000173       0x39 ./synergy/ssp/src/driver/r_cgc/r_cgc.o
 .ARM.attributes
                0x000001ac       0x39 ./synergy/ssp/src/driver/r_adc/r_adc.o
 .ARM.attributes
                0x000001e5       0x39 ./synergy/ssp/src/bsp/mcu/s5d9/bsp_cache.o
 .ARM.attributes
                0x0000021e       0x39 ./synergy/ssp/src/bsp/mcu/s5d9/bsp_clocks.o
 .ARM.attributes
                0x00000257       0x39 ./synergy/ssp/src/bsp/mcu/s5d9/bsp_feature.o
 .ARM.attributes
                0x00000290       0x39 ./synergy/ssp/src/bsp/mcu/s5d9/bsp_fmi_R7FS5D97E3A01CFC.o
 .ARM.attributes
                0x000002c9       0x39 ./synergy/ssp/src/bsp/mcu/s5d9/bsp_group_irq.o
 .ARM.attributes
                0x00000302       0x39 ./synergy/ssp/src/bsp/mcu/s5d9/bsp_hw_locks.o
 .ARM.attributes
                0x0000033b       0x39 ./synergy/ssp/src/bsp/mcu/s5d9/bsp_module_stop.o
 .ARM.attributes
                0x00000374       0x39 ./synergy/ssp/src/bsp/mcu/s5d9/bsp_rom_registers.o
 .ARM.attributes
                0x000003ad       0x39 ./synergy/ssp/src/bsp/mcu/all/bsp_common.o
 .ARM.attributes
                0x000003e6       0x39 ./synergy/ssp/src/bsp/mcu/all/bsp_common_leds.o
 .ARM.attributes
                0x0000041f       0x39 ./synergy/ssp/src/bsp/mcu/all/bsp_delay.o
 .ARM.attributes
                0x00000458       0x39 ./synergy/ssp/src/bsp/mcu/all/bsp_irq.o
 .ARM.attributes
                0x00000491       0x39 ./synergy/ssp/src/bsp/mcu/all/bsp_locking.o
 .ARM.attributes
                0x000004ca       0x39 ./synergy/ssp/src/bsp/mcu/all/bsp_register_protection.o
 .ARM.attributes
                0x00000503       0x39 ./synergy/ssp/src/bsp/mcu/all/bsp_sbrk.o
 .ARM.attributes
                0x0000053c       0x39 ./synergy/ssp/src/bsp/cmsis/Device/RENESAS/S5D9/Source/startup_S5D9.o
 .ARM.attributes
                0x00000575       0x39 ./synergy/ssp/src/bsp/cmsis/Device/RENESAS/S5D9/Source/system_S5D9.o
 .ARM.attributes
                0x000005ae       0x39 ./synergy/board/s5d9_pk/bsp_init.o
 .ARM.attributes
                0x000005e7       0x39 ./synergy/board/s5d9_pk/bsp_leds.o
 .ARM.attributes
                0x00000620       0x39 ./synergy/board/s5d9_pk/bsp_qspi.o
 .ARM.attributes
                0x00000659       0x39 ./src/synergy_gen/common_data.o
 .ARM.attributes
                0x00000692       0x39 ./src/synergy_gen/hal_data.o
 .ARM.attributes
                0x000006cb       0x39 ./src/synergy_gen/main.o
 .ARM.attributes
                0x00000704       0x39 ./src/synergy_gen/pin_data.o
 .ARM.attributes
                0x0000073d       0x39 ./src/synergy_gen/thread0.o
 .ARM.attributes
                0x00000776       0x39 ./src/thread0_entry.o
 .ARM.attributes
                0x000007af       0x39 C:\Users\kirti\PK_S5D9\verify\synergy\ssp\src\framework\el\tx\cm4_gcc\libtx.a(txe_queue_create.o)
 .ARM.attributes
                0x000007e8       0x39 C:\Users\kirti\PK_S5D9\verify\synergy\ssp\src\framework\el\tx\cm4_gcc\libtx.a(txe_semaphore_create.o)
 .ARM.attributes
                0x00000821       0x39 C:\Users\kirti\PK_S5D9\verify\synergy\ssp\src\framework\el\tx\cm4_gcc\libtx.a(txe_semaphore_get.o)
 .ARM.attributes
                0x0000085a       0x39 C:\Users\kirti\PK_S5D9\verify\synergy\ssp\src\framework\el\tx\cm4_gcc\libtx.a(txe_semaphore_put.o)
 .ARM.attributes
                0x00000893       0x39 C:\Users\kirti\PK_S5D9\verify\synergy\ssp\src\framework\el\tx\cm4_gcc\libtx.a(txe_thread_create.o)
 .ARM.attributes
                0x000008cc       0x39 C:\Users\kirti\PK_S5D9\verify\synergy\ssp\src\framework\el\tx\cm4_gcc\libtx.a(tx_initialize_high_level.o)
 .ARM.attributes
                0x00000905       0x39 C:\Users\kirti\PK_S5D9\verify\synergy\ssp\src\framework\el\tx\cm4_gcc\libtx.a(tx_initialize_kernel_enter.o)
 .ARM.attributes
                0x0000093e       0x39 C:\Users\kirti\PK_S5D9\verify\synergy\ssp\src\framework\el\tx\cm4_gcc\libtx.a(tx_isr_end.o)
 .ARM.attributes
                0x00000977       0x39 C:\Users\kirti\PK_S5D9\verify\synergy\ssp\src\framework\el\tx\cm4_gcc\libtx.a(tx_isr_start.o)
 .ARM.attributes
                0x000009b0       0x39 C:\Users\kirti\PK_S5D9\verify\synergy\ssp\src\framework\el\tx\cm4_gcc\libtx.a(tx_queue_create.o)
 .ARM.attributes
                0x000009e9       0x39 C:\Users\kirti\PK_S5D9\verify\synergy\ssp\src\framework\el\tx\cm4_gcc\libtx.a(tx_semaphore_create.o)
 .ARM.attributes
                0x00000a22       0x39 C:\Users\kirti\PK_S5D9\verify\synergy\ssp\src\framework\el\tx\cm4_gcc\libtx.a(tx_semaphore_get.o)
 .ARM.attributes
                0x00000a5b       0x39 C:\Users\kirti\PK_S5D9\verify\synergy\ssp\src\framework\el\tx\cm4_gcc\libtx.a(tx_semaphore_put.o)
 .ARM.attributes
                0x00000a94       0x39 C:\Users\kirti\PK_S5D9\verify\synergy\ssp\src\framework\el\tx\cm4_gcc\libtx.a(tx_thread_create.o)
 .ARM.attributes
                0x00000acd       0x39 C:\Users\kirti\PK_S5D9\verify\synergy\ssp\src\framework\el\tx\cm4_gcc\libtx.a(tx_thread_initialize.o)
 .ARM.attributes
                0x00000b06       0x39 C:\Users\kirti\PK_S5D9\verify\synergy\ssp\src\framework\el\tx\cm4_gcc\libtx.a(tx_thread_shell_entry.o)
 .ARM.attributes
                0x00000b3f       0x39 C:\Users\kirti\PK_S5D9\verify\synergy\ssp\src\framework\el\tx\cm4_gcc\libtx.a(tx_thread_sleep.o)
 .ARM.attributes
                0x00000b78       0x39 C:\Users\kirti\PK_S5D9\verify\synergy\ssp\src\framework\el\tx\cm4_gcc\libtx.a(tx_thread_system_preempt_check.o)
 .ARM.attributes
                0x00000bb1       0x39 C:\Users\kirti\PK_S5D9\verify\synergy\ssp\src\framework\el\tx\cm4_gcc\libtx.a(tx_thread_system_resume.o)
 .ARM.attributes
                0x00000bea       0x39 C:\Users\kirti\PK_S5D9\verify\synergy\ssp\src\framework\el\tx\cm4_gcc\libtx.a(tx_thread_system_suspend.o)
 .ARM.attributes
                0x00000c23       0x39 C:\Users\kirti\PK_S5D9\verify\synergy\ssp\src\framework\el\tx\cm4_gcc\libtx.a(tx_thread_timeout.o)
 .ARM.attributes
                0x00000c5c       0x39 C:\Users\kirti\PK_S5D9\verify\synergy\ssp\src\framework\el\tx\cm4_gcc\libtx.a(tx_timer_initialize.o)
 .ARM.attributes
                0x00000c95       0x39 C:\Users\kirti\PK_S5D9\verify\synergy\ssp\src\framework\el\tx\cm4_gcc\libtx.a(tx_timer_system_activate.o)
 .ARM.attributes
                0x00000cce       0x39 C:\Users\kirti\PK_S5D9\verify\synergy\ssp\src\framework\el\tx\cm4_gcc\libtx.a(tx_timer_system_deactivate.o)
 .ARM.attributes
                0x00000d07       0x39 C:\Users\kirti\PK_S5D9\verify\synergy\ssp\src\framework\el\tx\cm4_gcc\libtx.a(tx_initialize_low_level.o)
 .ARM.attributes
                0x00000d40       0x39 C:\Users\kirti\PK_S5D9\verify\synergy\ssp\src\framework\el\tx\cm4_gcc\libtx.a(tx_thread_schedule.o)
 .ARM.attributes
                0x00000d79       0x39 C:\Users\kirti\PK_S5D9\verify\synergy\ssp\src\framework\el\tx\cm4_gcc\libtx.a(tx_thread_stack_build.o)
 .ARM.attributes
                0x00000db2       0x39 C:\Users\kirti\PK_S5D9\verify\synergy\ssp\src\framework\el\tx\cm4_gcc\libtx.a(tx_timer_interrupt.o)
 .ARM.attributes
                0x00000deb       0x39 C:\Users\kirti\PK_S5D9\verify\synergy\ssp\src\framework\el\tx\cm4_gcc\libtx.a(tx_semaphore_cleanup.o)
 .ARM.attributes
                0x00000e24       0x39 C:\Users\kirti\PK_S5D9\verify\synergy\ssp\src\framework\el\tx\cm4_gcc\libtx.a(tx_thread_time_slice.o)
 .ARM.attributes
                0x00000e5d       0x39 C:\Users\kirti\PK_S5D9\verify\synergy\ssp\src\framework\el\tx\cm4_gcc\libtx.a(tx_timer_expiration_process.o)
 .ARM.attributes
                0x00000e96       0x34 c:/renesas/synergy/e2studio_v7.5.1_ssp_v1.7.5/toolchains/gcc_arm/7.2.1_2017q4/bin/../lib/gcc/arm-none-eabi/7.2.1/../../../../arm-none-eabi/lib/thumb/v7e-m/fpv4-sp/hard\libg_nano.a(lib_a-errno.o)
 .ARM.attributes
                0x00000eca       0x34 c:/renesas/synergy/e2studio_v7.5.1_ssp_v1.7.5/toolchains/gcc_arm/7.2.1_2017q4/bin/../lib/gcc/arm-none-eabi/7.2.1/../../../../arm-none-eabi/lib/thumb/v7e-m/fpv4-sp/hard\libg_nano.a(lib_a-impure.o)
 .ARM.attributes
                0x00000efe       0x34 c:/renesas/synergy/e2studio_v7.5.1_ssp_v1.7.5/toolchains/gcc_arm/7.2.1_2017q4/bin/../lib/gcc/arm-none-eabi/7.2.1/../../../../arm-none-eabi/lib/thumb/v7e-m/fpv4-sp/hard\libg_nano.a(lib_a-memcmp.o)
 .ARM.attributes
                0x00000f32       0x34 c:/renesas/synergy/e2studio_v7.5.1_ssp_v1.7.5/toolchains/gcc_arm/7.2.1_2017q4/bin/../lib/gcc/arm-none-eabi/7.2.1/../../../../arm-none-eabi/lib/thumb/v7e-m/fpv4-sp/hard\libg_nano.a(lib_a-memset.o)
 .ARM.attributes
                0x00000f66       0x34 c:/renesas/synergy/e2studio_v7.5.1_ssp_v1.7.5/toolchains/gcc_arm/7.2.1_2017q4/bin/../lib/gcc/arm-none-eabi/7.2.1/../../../../arm-none-eabi/lib/thumb/v7e-m/fpv4-sp/hard\libg_nano.a(lib_a-printf.o)
 .ARM.attributes
                0x00000f9a       0x34 c:/renesas/synergy/e2studio_v7.5.1_ssp_v1.7.5/toolchains/gcc_arm/7.2.1_2017q4/bin/../lib/gcc/arm-none-eabi/7.2.1/../../../../arm-none-eabi/lib/thumb/v7e-m/fpv4-sp/hard\libg_nano.a(lib_a-rand.o)
 .ARM.attributes
                0x00000fce       0x34 c:/renesas/synergy/e2studio_v7.5.1_ssp_v1.7.5/toolchains/gcc_arm/7.2.1_2017q4/bin/../lib/gcc/arm-none-eabi/7.2.1/../../../../arm-none-eabi/lib/thumb/v7e-m/fpv4-sp/hard\libg_nano.a(lib_a-findfp.o)
 .ARM.attributes
                0x00001002       0x34 c:/renesas/synergy/e2studio_v7.5.1_ssp_v1.7.5/toolchains/gcc_arm/7.2.1_2017q4/bin/../lib/gcc/arm-none-eabi/7.2.1/../../../../arm-none-eabi/lib/thumb/v7e-m/fpv4-sp/hard\libg_nano.a(lib_a-fwalk.o)
 .ARM.attributes
                0x00001036       0x34 c:/renesas/synergy/e2studio_v7.5.1_ssp_v1.7.5/toolchains/gcc_arm/7.2.1_2017q4/bin/../lib/gcc/arm-none-eabi/7.2.1/../../../../arm-none-eabi/lib/thumb/v7e-m/fpv4-sp/hard\libg_nano.a(lib_a-malloc.o)
 .ARM.attributes
                0x0000106a       0x34 c:/renesas/synergy/e2studio_v7.5.1_ssp_v1.7.5/toolchains/gcc_arm/7.2.1_2017q4/bin/../lib/gcc/arm-none-eabi/7.2.1/../../../../arm-none-eabi/lib/thumb/v7e-m/fpv4-sp/hard\libg_nano.a(lib_a-nano-freer.o)
 .ARM.attributes
                0x0000109e       0x34 c:/renesas/synergy/e2studio_v7.5.1_ssp_v1.7.5/toolchains/gcc_arm/7.2.1_2017q4/bin/../lib/gcc/arm-none-eabi/7.2.1/../../../../arm-none-eabi/lib/thumb/v7e-m/fpv4-sp/hard\libg_nano.a(lib_a-nano-mallocr.o)
 .ARM.attributes
                0x000010d2       0x34 c:/renesas/synergy/e2studio_v7.5.1_ssp_v1.7.5/toolchains/gcc_arm/7.2.1_2017q4/bin/../lib/gcc/arm-none-eabi/7.2.1/../../../../arm-none-eabi/lib/thumb/v7e-m/fpv4-sp/hard\libg_nano.a(lib_a-nano-vfprintf.o)
 .ARM.attributes
                0x00001106       0x34 c:/renesas/synergy/e2studio_v7.5.1_ssp_v1.7.5/toolchains/gcc_arm/7.2.1_2017q4/bin/../lib/gcc/arm-none-eabi/7.2.1/../../../../arm-none-eabi/lib/thumb/v7e-m/fpv4-sp/hard\libg_nano.a(lib_a-nano-vfprintf_i.o)
 .ARM.attributes
                0x0000113a       0x34 c:/renesas/synergy/e2studio_v7.5.1_ssp_v1.7.5/toolchains/gcc_arm/7.2.1_2017q4/bin/../lib/gcc/arm-none-eabi/7.2.1/../../../../arm-none-eabi/lib/thumb/v7e-m/fpv4-sp/hard\libg_nano.a(lib_a-sbrkr.o)
 .ARM.attributes
                0x0000116e       0x34 c:/renesas/synergy/e2studio_v7.5.1_ssp_v1.7.5/toolchains/gcc_arm/7.2.1_2017q4/bin/../lib/gcc/arm-none-eabi/7.2.1/../../../../arm-none-eabi/lib/thumb/v7e-m/fpv4-sp/hard\libg_nano.a(lib_a-stdio.o)
 .ARM.attributes
                0x000011a2       0x34 c:/renesas/synergy/e2studio_v7.5.1_ssp_v1.7.5/toolchains/gcc_arm/7.2.1_2017q4/bin/../lib/gcc/arm-none-eabi/7.2.1/../../../../arm-none-eabi/lib/thumb/v7e-m/fpv4-sp/hard\libg_nano.a(lib_a-wbuf.o)
 .ARM.attributes
                0x000011d6       0x34 c:/renesas/synergy/e2studio_v7.5.1_ssp_v1.7.5/toolchains/gcc_arm/7.2.1_2017q4/bin/../lib/gcc/arm-none-eabi/7.2.1/../../../../arm-none-eabi/lib/thumb/v7e-m/fpv4-sp/hard\libg_nano.a(lib_a-writer.o)
 .ARM.attributes
                0x0000120a       0x34 c:/renesas/synergy/e2studio_v7.5.1_ssp_v1.7.5/toolchains/gcc_arm/7.2.1_2017q4/bin/../lib/gcc/arm-none-eabi/7.2.1/../../../../arm-none-eabi/lib/thumb/v7e-m/fpv4-sp/hard\libg_nano.a(lib_a-wsetup.o)
 .ARM.attributes
                0x0000123e       0x34 c:/renesas/synergy/e2studio_v7.5.1_ssp_v1.7.5/toolchains/gcc_arm/7.2.1_2017q4/bin/../lib/gcc/arm-none-eabi/7.2.1/../../../../arm-none-eabi/lib/thumb/v7e-m/fpv4-sp/hard\libg_nano.a(lib_a-closer.o)
 .ARM.attributes
                0x00001272       0x34 c:/renesas/synergy/e2studio_v7.5.1_ssp_v1.7.5/toolchains/gcc_arm/7.2.1_2017q4/bin/../lib/gcc/arm-none-eabi/7.2.1/../../../../arm-none-eabi/lib/thumb/v7e-m/fpv4-sp/hard\libg_nano.a(lib_a-fflush.o)
 .ARM.attributes
                0x000012a6       0x34 c:/renesas/synergy/e2studio_v7.5.1_ssp_v1.7.5/toolchains/gcc_arm/7.2.1_2017q4/bin/../lib/gcc/arm-none-eabi/7.2.1/../../../../arm-none-eabi/lib/thumb/v7e-m/fpv4-sp/hard\libg_nano.a(lib_a-lseekr.o)
 .ARM.attributes
                0x000012da       0x34 c:/renesas/synergy/e2studio_v7.5.1_ssp_v1.7.5/toolchains/gcc_arm/7.2.1_2017q4/bin/../lib/gcc/arm-none-eabi/7.2.1/../../../../arm-none-eabi/lib/thumb/v7e-m/fpv4-sp/hard\libg_nano.a(lib_a-makebuf.o)
 .ARM.attributes
                0x0000130e       0x20 c:/renesas/synergy/e2studio_v7.5.1_ssp_v1.7.5/toolchains/gcc_arm/7.2.1_2017q4/bin/../lib/gcc/arm-none-eabi/7.2.1/../../../../arm-none-eabi/lib/thumb/v7e-m/fpv4-sp/hard\libg_nano.a(lib_a-memchr.o)
 .ARM.attributes
                0x0000132e       0x34 c:/renesas/synergy/e2studio_v7.5.1_ssp_v1.7.5/toolchains/gcc_arm/7.2.1_2017q4/bin/../lib/gcc/arm-none-eabi/7.2.1/../../../../arm-none-eabi/lib/thumb/v7e-m/fpv4-sp/hard\libg_nano.a(lib_a-mlock.o)
 .ARM.attributes
                0x00001362       0x34 c:/renesas/synergy/e2studio_v7.5.1_ssp_v1.7.5/toolchains/gcc_arm/7.2.1_2017q4/bin/../lib/gcc/arm-none-eabi/7.2.1/../../../../arm-none-eabi/lib/thumb/v7e-m/fpv4-sp/hard\libg_nano.a(lib_a-readr.o)
 .ARM.attributes
                0x00001396       0x34 c:/renesas/synergy/e2studio_v7.5.1_ssp_v1.7.5/toolchains/gcc_arm/7.2.1_2017q4/bin/../lib/gcc/arm-none-eabi/7.2.1/../../../../arm-none-eabi/lib/thumb/v7e-m/fpv4-sp/hard\libg_nano.a(lib_a-reent.o)
 .ARM.attributes
                0x000013ca       0x34 c:/renesas/synergy/e2studio_v7.5.1_ssp_v1.7.5/toolchains/gcc_arm/7.2.1_2017q4/bin/../lib/gcc/arm-none-eabi/7.2.1/../../../../arm-none-eabi/lib/thumb/v7e-m/fpv4-sp/hard\libg_nano.a(lib_a-fstatr.o)
 .ARM.attributes
                0x000013fe       0x34 c:/renesas/synergy/e2studio_v7.5.1_ssp_v1.7.5/toolchains/gcc_arm/7.2.1_2017q4/bin/../lib/gcc/arm-none-eabi/7.2.1/../../../../arm-none-eabi/lib/thumb/v7e-m/fpv4-sp/hard\libg_nano.a(lib_a-isattyr.o)
 .ARM.attributes
                0x00001432       0x34 c:/renesas/synergy/e2studio_v7.5.1_ssp_v1.7.5/toolchains/gcc_arm/7.2.1_2017q4/bin/../lib/gcc/arm-none-eabi/7.2.1/../../../../arm-none-eabi/lib/thumb/v7e-m/fpv4-sp/hard\librdimon_nano.a(rdimon-syscalls.o)
 .ARM.attributes
                0x00001466       0x1b c:/renesas/synergy/e2studio_v7.5.1_ssp_v1.7.5/toolchains/gcc_arm/7.2.1_2017q4/bin/../lib/gcc/arm-none-eabi/7.2.1/../../../../arm-none-eabi/lib/thumb/v7e-m/fpv4-sp/hard\libc_nano.a(lib_a-strlen.o)
 .ARM.attributes
                0x00001481       0x34 c:/renesas/synergy/e2studio_v7.5.1_ssp_v1.7.5/toolchains/gcc_arm/7.2.1_2017q4/bin/../lib/gcc/arm-none-eabi/7.2.1/thumb/v7e-m/fpv4-sp/hard/crtend.o
 .ARM.attributes
                0x000014b5       0x22 c:/renesas/synergy/e2studio_v7.5.1_ssp_v1.7.5/toolchains/gcc_arm/7.2.1_2017q4/bin/../lib/gcc/arm-none-eabi/7.2.1/thumb/v7e-m/fpv4-sp/hard/crtn.o

.comment        0x00000000       0x7e
 .comment       0x00000000       0x7e ./synergy/ssp/src/driver/r_sci_uart/r_sci_uart.o
                                 0x7f (size before relaxing)
 .comment       0x0000007e       0x7f ./synergy/ssp/src/driver/r_ioport/r_ioport.o
 .comment       0x0000007e       0x7f ./synergy/ssp/src/driver/r_gpt/r_gpt.o
 .comment       0x0000007e       0x7f ./synergy/ssp/src/driver/r_fmi/r_fmi.o
 .comment       0x0000007e       0x7f ./synergy/ssp/src/driver/r_elc/r_elc.o
 .comment       0x0000007e       0x7f ./synergy/ssp/src/driver/r_cgc/r_cgc.o
 .comment       0x0000007e       0x7f ./synergy/ssp/src/driver/r_adc/r_adc.o
 .comment       0x0000007e       0x7f ./synergy/ssp/src/bsp/mcu/s5d9/bsp_cache.o
 .comment       0x0000007e       0x7f ./synergy/ssp/src/bsp/mcu/s5d9/bsp_clocks.o
 .comment       0x0000007e       0x7f ./synergy/ssp/src/bsp/mcu/s5d9/bsp_feature.o
 .comment       0x0000007e       0x7f ./synergy/ssp/src/bsp/mcu/s5d9/bsp_fmi_R7FS5D97E3A01CFC.o
 .comment       0x0000007e       0x7f ./synergy/ssp/src/bsp/mcu/s5d9/bsp_group_irq.o
 .comment       0x0000007e       0x7f ./synergy/ssp/src/bsp/mcu/s5d9/bsp_hw_locks.o
 .comment       0x0000007e       0x7f ./synergy/ssp/src/bsp/mcu/s5d9/bsp_module_stop.o
 .comment       0x0000007e       0x7f ./synergy/ssp/src/bsp/mcu/s5d9/bsp_rom_registers.o
 .comment       0x0000007e       0x7f ./synergy/ssp/src/bsp/mcu/all/bsp_common.o
 .comment       0x0000007e       0x7f ./synergy/ssp/src/bsp/mcu/all/bsp_common_leds.o
 .comment       0x0000007e       0x7f ./synergy/ssp/src/bsp/mcu/all/bsp_delay.o
 .comment       0x0000007e       0x7f ./synergy/ssp/src/bsp/mcu/all/bsp_irq.o
 .comment       0x0000007e       0x7f ./synergy/ssp/src/bsp/mcu/all/bsp_locking.o
 .comment       0x0000007e       0x7f ./synergy/ssp/src/bsp/mcu/all/bsp_register_protection.o
 .comment       0x0000007e       0x7f ./synergy/ssp/src/bsp/mcu/all/bsp_sbrk.o
 .comment       0x0000007e       0x7f ./synergy/ssp/src/bsp/cmsis/Device/RENESAS/S5D9/Source/startup_S5D9.o
 .comment       0x0000007e       0x7f ./synergy/ssp/src/bsp/cmsis/Device/RENESAS/S5D9/Source/system_S5D9.o
 .comment       0x0000007e       0x7f ./synergy/board/s5d9_pk/bsp_init.o
 .comment       0x0000007e       0x7f ./synergy/board/s5d9_pk/bsp_leds.o
 .comment       0x0000007e       0x7f ./synergy/board/s5d9_pk/bsp_qspi.o
 .comment       0x0000007e       0x7f ./src/synergy_gen/common_data.o
 .comment       0x0000007e       0x7f ./src/synergy_gen/hal_data.o
 .comment       0x0000007e       0x7f ./src/synergy_gen/main.o
 .comment       0x0000007e       0x7f ./src/synergy_gen/pin_data.o
 .comment       0x0000007e       0x7f ./src/synergy_gen/thread0.o
 .comment       0x0000007e       0x7f ./src/thread0_entry.o
 .comment       0x0000007e       0x7f C:\Users\kirti\PK_S5D9\verify\synergy\ssp\src\framework\el\tx\cm4_gcc\libtx.a(txe_queue_create.o)
 .comment       0x0000007e       0x7f C:\Users\kirti\PK_S5D9\verify\synergy\ssp\src\framework\el\tx\cm4_gcc\libtx.a(txe_semaphore_create.o)
 .comment       0x0000007e       0x7f C:\Users\kirti\PK_S5D9\verify\synergy\ssp\src\framework\el\tx\cm4_gcc\libtx.a(txe_semaphore_get.o)
 .comment       0x0000007e       0x7f C:\Users\kirti\PK_S5D9\verify\synergy\ssp\src\framework\el\tx\cm4_gcc\libtx.a(txe_semaphore_put.o)
 .comment       0x0000007e       0x7f C:\Users\kirti\PK_S5D9\verify\synergy\ssp\src\framework\el\tx\cm4_gcc\libtx.a(txe_thread_create.o)
 .comment       0x0000007e       0x7f C:\Users\kirti\PK_S5D9\verify\synergy\ssp\src\framework\el\tx\cm4_gcc\libtx.a(tx_initialize_high_level.o)
 .comment       0x0000007e       0x7f C:\Users\kirti\PK_S5D9\verify\synergy\ssp\src\framework\el\tx\cm4_gcc\libtx.a(tx_initialize_kernel_enter.o)
 .comment       0x0000007e       0x7f C:\Users\kirti\PK_S5D9\verify\synergy\ssp\src\framework\el\tx\cm4_gcc\libtx.a(tx_isr_end.o)
 .comment       0x0000007e       0x7f C:\Users\kirti\PK_S5D9\verify\synergy\ssp\src\framework\el\tx\cm4_gcc\libtx.a(tx_isr_start.o)
 .comment       0x0000007e       0x7f C:\Users\kirti\PK_S5D9\verify\synergy\ssp\src\framework\el\tx\cm4_gcc\libtx.a(tx_queue_create.o)
 .comment       0x0000007e       0x7f C:\Users\kirti\PK_S5D9\verify\synergy\ssp\src\framework\el\tx\cm4_gcc\libtx.a(tx_semaphore_create.o)
 .comment       0x0000007e       0x7f C:\Users\kirti\PK_S5D9\verify\synergy\ssp\src\framework\el\tx\cm4_gcc\libtx.a(tx_semaphore_get.o)
 .comment       0x0000007e       0x7f C:\Users\kirti\PK_S5D9\verify\synergy\ssp\src\framework\el\tx\cm4_gcc\libtx.a(tx_semaphore_put.o)
 .comment       0x0000007e       0x7f C:\Users\kirti\PK_S5D9\verify\synergy\ssp\src\framework\el\tx\cm4_gcc\libtx.a(tx_thread_create.o)
 .comment       0x0000007e       0x7f C:\Users\kirti\PK_S5D9\verify\synergy\ssp\src\framework\el\tx\cm4_gcc\libtx.a(tx_thread_initialize.o)
 .comment       0x0000007e       0x7f C:\Users\kirti\PK_S5D9\verify\synergy\ssp\src\framework\el\tx\cm4_gcc\libtx.a(tx_thread_shell_entry.o)
 .comment       0x0000007e       0x7f C:\Users\kirti\PK_S5D9\verify\synergy\ssp\src\framework\el\tx\cm4_gcc\libtx.a(tx_thread_sleep.o)
 .comment       0x0000007e       0x7f C:\Users\kirti\PK_S5D9\verify\synergy\ssp\src\framework\el\tx\cm4_gcc\libtx.a(tx_thread_system_preempt_check.o)
 .comment       0x0000007e       0x7f C:\Users\kirti\PK_S5D9\verify\synergy\ssp\src\framework\el\tx\cm4_gcc\libtx.a(tx_thread_system_resume.o)
 .comment       0x0000007e       0x7f C:\Users\kirti\PK_S5D9\verify\synergy\ssp\src\framework\el\tx\cm4_gcc\libtx.a(tx_thread_system_suspend.o)
 .comment       0x0000007e       0x7f C:\Users\kirti\PK_S5D9\verify\synergy\ssp\src\framework\el\tx\cm4_gcc\libtx.a(tx_thread_timeout.o)
 .comment       0x0000007e       0x7f C:\Users\kirti\PK_S5D9\verify\synergy\ssp\src\framework\el\tx\cm4_gcc\libtx.a(tx_timer_initialize.o)
 .comment       0x0000007e       0x7f C:\Users\kirti\PK_S5D9\verify\synergy\ssp\src\framework\el\tx\cm4_gcc\libtx.a(tx_timer_system_activate.o)
 .comment       0x0000007e       0x7f C:\Users\kirti\PK_S5D9\verify\synergy\ssp\src\framework\el\tx\cm4_gcc\libtx.a(tx_timer_system_deactivate.o)
 .comment       0x0000007e       0x7f C:\Users\kirti\PK_S5D9\verify\synergy\ssp\src\framework\el\tx\cm4_gcc\libtx.a(tx_initialize_low_level.o)
 .comment       0x0000007e       0x7f C:\Users\kirti\PK_S5D9\verify\synergy\ssp\src\framework\el\tx\cm4_gcc\libtx.a(tx_thread_schedule.o)
 .comment       0x0000007e       0x7f C:\Users\kirti\PK_S5D9\verify\synergy\ssp\src\framework\el\tx\cm4_gcc\libtx.a(tx_thread_stack_build.o)
 .comment       0x0000007e       0x7f C:\Users\kirti\PK_S5D9\verify\synergy\ssp\src\framework\el\tx\cm4_gcc\libtx.a(tx_timer_interrupt.o)
 .comment       0x0000007e       0x7f C:\Users\kirti\PK_S5D9\verify\synergy\ssp\src\framework\el\tx\cm4_gcc\libtx.a(tx_semaphore_cleanup.o)
 .comment       0x0000007e       0x7f C:\Users\kirti\PK_S5D9\verify\synergy\ssp\src\framework\el\tx\cm4_gcc\libtx.a(tx_thread_time_slice.o)
 .comment       0x0000007e       0x7f C:\Users\kirti\PK_S5D9\verify\synergy\ssp\src\framework\el\tx\cm4_gcc\libtx.a(tx_timer_expiration_process.o)

.debug_info     0x00000000    0x97b38
 .debug_info    0x00000000     0x7d0a ./synergy/ssp/src/driver/r_sci_uart/r_sci_uart.o
 .debug_info    0x00007d0a     0xf8ab ./synergy/ssp/src/driver/r_ioport/r_ioport.o
 .debug_info    0x000175b5     0x6af8 ./synergy/ssp/src/driver/r_gpt/r_gpt.o
 .debug_info    0x0001e0ad     0x2fd4 ./synergy/ssp/src/driver/r_fmi/r_fmi.o
 .debug_info    0x00021081     0x22cf ./synergy/ssp/src/driver/r_elc/r_elc.o
 .debug_info    0x00023350     0x7f75 ./synergy/ssp/src/driver/r_cgc/r_cgc.o
 .debug_info    0x0002b2c5     0x83e4 ./synergy/ssp/src/driver/r_adc/r_adc.o
 .debug_info    0x000336a9     0x1b61 ./synergy/ssp/src/bsp/mcu/s5d9/bsp_cache.o
 .debug_info    0x0003520a     0x280b ./synergy/ssp/src/bsp/mcu/s5d9/bsp_clocks.o
 .debug_info    0x00037a15     0x2892 ./synergy/ssp/src/bsp/mcu/s5d9/bsp_feature.o
 .debug_info    0x0003a2a7     0x1ab1 ./synergy/ssp/src/bsp/mcu/s5d9/bsp_fmi_R7FS5D97E3A01CFC.o
 .debug_info    0x0003bd58     0x2709 ./synergy/ssp/src/bsp/mcu/s5d9/bsp_group_irq.o
 .debug_info    0x0003e461     0x29e0 ./synergy/ssp/src/bsp/mcu/s5d9/bsp_hw_locks.o
 .debug_info    0x00040e41     0x3f22 ./synergy/ssp/src/bsp/mcu/s5d9/bsp_module_stop.o
 .debug_info    0x00044d63     0x1adb ./synergy/ssp/src/bsp/mcu/s5d9/bsp_rom_registers.o
 .debug_info    0x0004683e     0x1bd6 ./synergy/ssp/src/bsp/mcu/all/bsp_common.o
 .debug_info    0x00048414     0x1f1a ./synergy/ssp/src/bsp/mcu/all/bsp_common_leds.o
 .debug_info    0x0004a32e     0x1a6a ./synergy/ssp/src/bsp/mcu/all/bsp_delay.o
 .debug_info    0x0004bd98     0x24af ./synergy/ssp/src/bsp/mcu/all/bsp_irq.o
 .debug_info    0x0004e247     0x1ee1 ./synergy/ssp/src/bsp/mcu/all/bsp_locking.o
 .debug_info    0x00050128     0x3900 ./synergy/ssp/src/bsp/mcu/all/bsp_register_protection.o
 .debug_info    0x00053a28     0x221c ./synergy/ssp/src/bsp/mcu/all/bsp_sbrk.o
 .debug_info    0x00055c44     0x1b64 ./synergy/ssp/src/bsp/cmsis/Device/RENESAS/S5D9/Source/startup_S5D9.o
 .debug_info    0x000577a8     0x3ea0 ./synergy/ssp/src/bsp/cmsis/Device/RENESAS/S5D9/Source/system_S5D9.o
 .debug_info    0x0005b648     0x1975 ./synergy/board/s5d9_pk/bsp_init.o
 .debug_info    0x0005cfbd     0x2065 ./synergy/board/s5d9_pk/bsp_leds.o
 .debug_info    0x0005f022     0x2994 ./synergy/board/s5d9_pk/bsp_qspi.o
 .debug_info    0x000619b6     0x2d67 ./src/synergy_gen/common_data.o
 .debug_info    0x0006471d     0x2bf6 ./src/synergy_gen/hal_data.o
 .debug_info    0x00067313     0x2947 ./src/synergy_gen/main.o
 .debug_info    0x00069c5a     0x253e ./src/synergy_gen/pin_data.o
 .debug_info    0x0006c198     0x5e01 ./src/synergy_gen/thread0.o
 .debug_info    0x00071f99     0x53c9 ./src/thread0_entry.o
 .debug_info    0x00077362     0x11aa C:\Users\kirti\PK_S5D9\verify\synergy\ssp\src\framework\el\tx\cm4_gcc\libtx.a(txe_queue_create.o)
 .debug_info    0x0007850c     0x1123 C:\Users\kirti\PK_S5D9\verify\synergy\ssp\src\framework\el\tx\cm4_gcc\libtx.a(txe_semaphore_create.o)
 .debug_info    0x0007962f      0xfd5 C:\Users\kirti\PK_S5D9\verify\synergy\ssp\src\framework\el\tx\cm4_gcc\libtx.a(txe_semaphore_get.o)
 .debug_info    0x0007a604      0xdaf C:\Users\kirti\PK_S5D9\verify\synergy\ssp\src\framework\el\tx\cm4_gcc\libtx.a(txe_semaphore_put.o)
 .debug_info    0x0007b3b3     0x1154 C:\Users\kirti\PK_S5D9\verify\synergy\ssp\src\framework\el\tx\cm4_gcc\libtx.a(txe_thread_create.o)
 .debug_info    0x0007c507     0x1376 C:\Users\kirti\PK_S5D9\verify\synergy\ssp\src\framework\el\tx\cm4_gcc\libtx.a(tx_initialize_high_level.o)
 .debug_info    0x0007d87d      0xf14 C:\Users\kirti\PK_S5D9\verify\synergy\ssp\src\framework\el\tx\cm4_gcc\libtx.a(tx_initialize_kernel_enter.o)
 .debug_info    0x0007e791      0x94a C:\Users\kirti\PK_S5D9\verify\synergy\ssp\src\framework\el\tx\cm4_gcc\libtx.a(tx_isr_end.o)
 .debug_info    0x0007f0db      0x94a C:\Users\kirti\PK_S5D9\verify\synergy\ssp\src\framework\el\tx\cm4_gcc\libtx.a(tx_isr_start.o)
 .debug_info    0x0007fa25      0xf19 C:\Users\kirti\PK_S5D9\verify\synergy\ssp\src\framework\el\tx\cm4_gcc\libtx.a(tx_queue_create.o)
 .debug_info    0x0008093e      0xe4a C:\Users\kirti\PK_S5D9\verify\synergy\ssp\src\framework\el\tx\cm4_gcc\libtx.a(tx_semaphore_create.o)
 .debug_info    0x00081788      0xf84 C:\Users\kirti\PK_S5D9\verify\synergy\ssp\src\framework\el\tx\cm4_gcc\libtx.a(tx_semaphore_get.o)
 .debug_info    0x0008270c      0xf4d C:\Users\kirti\PK_S5D9\verify\synergy\ssp\src\framework\el\tx\cm4_gcc\libtx.a(tx_semaphore_put.o)
 .debug_info    0x00083659     0x109a C:\Users\kirti\PK_S5D9\verify\synergy\ssp\src\framework\el\tx\cm4_gcc\libtx.a(tx_thread_create.o)
 .debug_info    0x000846f3      0xeb8 C:\Users\kirti\PK_S5D9\verify\synergy\ssp\src\framework\el\tx\cm4_gcc\libtx.a(tx_thread_initialize.o)
 .debug_info    0x000855ab      0xe63 C:\Users\kirti\PK_S5D9\verify\synergy\ssp\src\framework\el\tx\cm4_gcc\libtx.a(tx_thread_shell_entry.o)
 .debug_info    0x0008640e     0x1006 C:\Users\kirti\PK_S5D9\verify\synergy\ssp\src\framework\el\tx\cm4_gcc\libtx.a(tx_thread_sleep.o)
 .debug_info    0x00087414     0x109e C:\Users\kirti\PK_S5D9\verify\synergy\ssp\src\framework\el\tx\cm4_gcc\libtx.a(tx_thread_system_preempt_check.o)
 .debug_info    0x000884b2     0x12a3 C:\Users\kirti\PK_S5D9\verify\synergy\ssp\src\framework\el\tx\cm4_gcc\libtx.a(tx_thread_system_resume.o)
 .debug_info    0x00089755     0x12e3 C:\Users\kirti\PK_S5D9\verify\synergy\ssp\src\framework\el\tx\cm4_gcc\libtx.a(tx_thread_system_suspend.o)
 .debug_info    0x0008aa38      0xfbd C:\Users\kirti\PK_S5D9\verify\synergy\ssp\src\framework\el\tx\cm4_gcc\libtx.a(tx_thread_timeout.o)
 .debug_info    0x0008b9f5      0xf81 C:\Users\kirti\PK_S5D9\verify\synergy\ssp\src\framework\el\tx\cm4_gcc\libtx.a(tx_timer_initialize.o)
 .debug_info    0x0008c976      0xb53 C:\Users\kirti\PK_S5D9\verify\synergy\ssp\src\framework\el\tx\cm4_gcc\libtx.a(tx_timer_system_activate.o)
 .debug_info    0x0008d4c9      0xb26 C:\Users\kirti\PK_S5D9\verify\synergy\ssp\src\framework\el\tx\cm4_gcc\libtx.a(tx_timer_system_deactivate.o)
 .debug_info    0x0008dfef     0x14a8 C:\Users\kirti\PK_S5D9\verify\synergy\ssp\src\framework\el\tx\cm4_gcc\libtx.a(tx_initialize_low_level.o)
 .debug_info    0x0008f497     0x391c C:\Users\kirti\PK_S5D9\verify\synergy\ssp\src\framework\el\tx\cm4_gcc\libtx.a(tx_thread_schedule.o)
 .debug_info    0x00092db3      0xdc6 C:\Users\kirti\PK_S5D9\verify\synergy\ssp\src\framework\el\tx\cm4_gcc\libtx.a(tx_thread_stack_build.o)
 .debug_info    0x00093b79     0x109f C:\Users\kirti\PK_S5D9\verify\synergy\ssp\src\framework\el\tx\cm4_gcc\libtx.a(tx_timer_interrupt.o)
 .debug_info    0x00094c18      0xf8c C:\Users\kirti\PK_S5D9\verify\synergy\ssp\src\framework\el\tx\cm4_gcc\libtx.a(tx_semaphore_cleanup.o)
 .debug_info    0x00095ba4      0xf45 C:\Users\kirti\PK_S5D9\verify\synergy\ssp\src\framework\el\tx\cm4_gcc\libtx.a(tx_thread_time_slice.o)
 .debug_info    0x00096ae9     0x104f C:\Users\kirti\PK_S5D9\verify\synergy\ssp\src\framework\el\tx\cm4_gcc\libtx.a(tx_timer_expiration_process.o)

.debug_abbrev   0x00000000     0xb04f
 .debug_abbrev  0x00000000      0x601 ./synergy/ssp/src/driver/r_sci_uart/r_sci_uart.o
 .debug_abbrev  0x00000601      0x4ef ./synergy/ssp/src/driver/r_ioport/r_ioport.o
 .debug_abbrev  0x00000af0      0x585 ./synergy/ssp/src/driver/r_gpt/r_gpt.o
 .debug_abbrev  0x00001075      0x439 ./synergy/ssp/src/driver/r_fmi/r_fmi.o
 .debug_abbrev  0x000014ae      0x33b ./synergy/ssp/src/driver/r_elc/r_elc.o
 .debug_abbrev  0x000017e9      0x62e ./synergy/ssp/src/driver/r_cgc/r_cgc.o
 .debug_abbrev  0x00001e17      0x5b9 ./synergy/ssp/src/driver/r_adc/r_adc.o
 .debug_abbrev  0x000023d0      0x244 ./synergy/ssp/src/bsp/mcu/s5d9/bsp_cache.o
 .debug_abbrev  0x00002614      0x32e ./synergy/ssp/src/bsp/mcu/s5d9/bsp_clocks.o
 .debug_abbrev  0x00002942      0x200 ./synergy/ssp/src/bsp/mcu/s5d9/bsp_feature.o
 .debug_abbrev  0x00002b42      0x1c5 ./synergy/ssp/src/bsp/mcu/s5d9/bsp_fmi_R7FS5D97E3A01CFC.o
 .debug_abbrev  0x00002d07      0x333 ./synergy/ssp/src/bsp/mcu/s5d9/bsp_group_irq.o
 .debug_abbrev  0x0000303a      0x200 ./synergy/ssp/src/bsp/mcu/s5d9/bsp_hw_locks.o
 .debug_abbrev  0x0000323a      0x37a ./synergy/ssp/src/bsp/mcu/s5d9/bsp_module_stop.o
 .debug_abbrev  0x000035b4      0x1c5 ./synergy/ssp/src/bsp/mcu/s5d9/bsp_rom_registers.o
 .debug_abbrev  0x00003779      0x253 ./synergy/ssp/src/bsp/mcu/all/bsp_common.o
 .debug_abbrev  0x000039cc      0x1e5 ./synergy/ssp/src/bsp/mcu/all/bsp_common_leds.o
 .debug_abbrev  0x00003bb1      0x25f ./synergy/ssp/src/bsp/mcu/all/bsp_delay.o
 .debug_abbrev  0x00003e10      0x296 ./synergy/ssp/src/bsp/mcu/all/bsp_irq.o
 .debug_abbrev  0x000040a6      0x3ad ./synergy/ssp/src/bsp/mcu/all/bsp_locking.o
 .debug_abbrev  0x00004453      0x2ed ./synergy/ssp/src/bsp/mcu/all/bsp_register_protection.o
 .debug_abbrev  0x00004740      0x2c2 ./synergy/ssp/src/bsp/mcu/all/bsp_sbrk.o
 .debug_abbrev  0x00004a02      0x23b ./synergy/ssp/src/bsp/cmsis/Device/RENESAS/S5D9/Source/startup_S5D9.o
 .debug_abbrev  0x00004c3d      0x42a ./synergy/ssp/src/bsp/cmsis/Device/RENESAS/S5D9/Source/system_S5D9.o
 .debug_abbrev  0x00005067      0x202 ./synergy/board/s5d9_pk/bsp_init.o
 .debug_abbrev  0x00005269      0x1d6 ./synergy/board/s5d9_pk/bsp_leds.o
 .debug_abbrev  0x0000543f      0x38f ./synergy/board/s5d9_pk/bsp_qspi.o
 .debug_abbrev  0x000057ce      0x21e ./src/synergy_gen/common_data.o
 .debug_abbrev  0x000059ec      0x232 ./src/synergy_gen/hal_data.o
 .debug_abbrev  0x00005c1e      0x336 ./src/synergy_gen/main.o
 .debug_abbrev  0x00005f54      0x209 ./src/synergy_gen/pin_data.o
 .debug_abbrev  0x0000615d      0x3b2 ./src/synergy_gen/thread0.o
 .debug_abbrev  0x0000650f      0x341 ./src/thread0_entry.o
 .debug_abbrev  0x00006850      0x29e C:\Users\kirti\PK_S5D9\verify\synergy\ssp\src\framework\el\tx\cm4_gcc\libtx.a(txe_queue_create.o)
 .debug_abbrev  0x00006aee      0x28d C:\Users\kirti\PK_S5D9\verify\synergy\ssp\src\framework\el\tx\cm4_gcc\libtx.a(txe_semaphore_create.o)
 .debug_abbrev  0x00006d7b      0x235 C:\Users\kirti\PK_S5D9\verify\synergy\ssp\src\framework\el\tx\cm4_gcc\libtx.a(txe_semaphore_get.o)
 .debug_abbrev  0x00006fb0      0x1f2 C:\Users\kirti\PK_S5D9\verify\synergy\ssp\src\framework\el\tx\cm4_gcc\libtx.a(txe_semaphore_put.o)
 .debug_abbrev  0x000071a2      0x29e C:\Users\kirti\PK_S5D9\verify\synergy\ssp\src\framework\el\tx\cm4_gcc\libtx.a(txe_thread_create.o)
 .debug_abbrev  0x00007440      0x200 C:\Users\kirti\PK_S5D9\verify\synergy\ssp\src\framework\el\tx\cm4_gcc\libtx.a(tx_initialize_high_level.o)
 .debug_abbrev  0x00007640      0x1f0 C:\Users\kirti\PK_S5D9\verify\synergy\ssp\src\framework\el\tx\cm4_gcc\libtx.a(tx_initialize_kernel_enter.o)
 .debug_abbrev  0x00007830      0x1c2 C:\Users\kirti\PK_S5D9\verify\synergy\ssp\src\framework\el\tx\cm4_gcc\libtx.a(tx_isr_end.o)
 .debug_abbrev  0x000079f2      0x1c2 C:\Users\kirti\PK_S5D9\verify\synergy\ssp\src\framework\el\tx\cm4_gcc\libtx.a(tx_isr_start.o)
 .debug_abbrev  0x00007bb4      0x276 C:\Users\kirti\PK_S5D9\verify\synergy\ssp\src\framework\el\tx\cm4_gcc\libtx.a(tx_queue_create.o)
 .debug_abbrev  0x00007e2a      0x259 C:\Users\kirti\PK_S5D9\verify\synergy\ssp\src\framework\el\tx\cm4_gcc\libtx.a(tx_semaphore_create.o)
 .debug_abbrev  0x00008083      0x285 C:\Users\kirti\PK_S5D9\verify\synergy\ssp\src\framework\el\tx\cm4_gcc\libtx.a(tx_semaphore_get.o)
 .debug_abbrev  0x00008308      0x277 C:\Users\kirti\PK_S5D9\verify\synergy\ssp\src\framework\el\tx\cm4_gcc\libtx.a(tx_semaphore_put.o)
 .debug_abbrev  0x0000857f      0x2c4 C:\Users\kirti\PK_S5D9\verify\synergy\ssp\src\framework\el\tx\cm4_gcc\libtx.a(tx_thread_create.o)
 .debug_abbrev  0x00008843      0x1fd C:\Users\kirti\PK_S5D9\verify\synergy\ssp\src\framework\el\tx\cm4_gcc\libtx.a(tx_thread_initialize.o)
 .debug_abbrev  0x00008a40      0x26d C:\Users\kirti\PK_S5D9\verify\synergy\ssp\src\framework\el\tx\cm4_gcc\libtx.a(tx_thread_shell_entry.o)
 .debug_abbrev  0x00008cad      0x27b C:\Users\kirti\PK_S5D9\verify\synergy\ssp\src\framework\el\tx\cm4_gcc\libtx.a(tx_thread_sleep.o)
 .debug_abbrev  0x00008f28      0x286 C:\Users\kirti\PK_S5D9\verify\synergy\ssp\src\framework\el\tx\cm4_gcc\libtx.a(tx_thread_system_preempt_check.o)
 .debug_abbrev  0x000091ae      0x2dc C:\Users\kirti\PK_S5D9\verify\synergy\ssp\src\framework\el\tx\cm4_gcc\libtx.a(tx_thread_system_resume.o)
 .debug_abbrev  0x0000948a      0x2eb C:\Users\kirti\PK_S5D9\verify\synergy\ssp\src\framework\el\tx\cm4_gcc\libtx.a(tx_thread_system_suspend.o)
 .debug_abbrev  0x00009775      0x283 C:\Users\kirti\PK_S5D9\verify\synergy\ssp\src\framework\el\tx\cm4_gcc\libtx.a(tx_thread_timeout.o)
 .debug_abbrev  0x000099f8      0x1ec C:\Users\kirti\PK_S5D9\verify\synergy\ssp\src\framework\el\tx\cm4_gcc\libtx.a(tx_timer_initialize.o)
 .debug_abbrev  0x00009be4      0x1d1 C:\Users\kirti\PK_S5D9\verify\synergy\ssp\src\framework\el\tx\cm4_gcc\libtx.a(tx_timer_system_activate.o)
 .debug_abbrev  0x00009db5      0x1d1 C:\Users\kirti\PK_S5D9\verify\synergy\ssp\src\framework\el\tx\cm4_gcc\libtx.a(tx_timer_system_deactivate.o)
 .debug_abbrev  0x00009f86      0x29b C:\Users\kirti\PK_S5D9\verify\synergy\ssp\src\framework\el\tx\cm4_gcc\libtx.a(tx_initialize_low_level.o)
 .debug_abbrev  0x0000a221      0x327 C:\Users\kirti\PK_S5D9\verify\synergy\ssp\src\framework\el\tx\cm4_gcc\libtx.a(tx_thread_schedule.o)
 .debug_abbrev  0x0000a548      0x1c2 C:\Users\kirti\PK_S5D9\verify\synergy\ssp\src\framework\el\tx\cm4_gcc\libtx.a(tx_thread_stack_build.o)
 .debug_abbrev  0x0000a70a      0x1f1 C:\Users\kirti\PK_S5D9\verify\synergy\ssp\src\framework\el\tx\cm4_gcc\libtx.a(tx_timer_interrupt.o)
 .debug_abbrev  0x0000a8fb      0x285 C:\Users\kirti\PK_S5D9\verify\synergy\ssp\src\framework\el\tx\cm4_gcc\libtx.a(tx_semaphore_cleanup.o)
 .debug_abbrev  0x0000ab80      0x248 C:\Users\kirti\PK_S5D9\verify\synergy\ssp\src\framework\el\tx\cm4_gcc\libtx.a(tx_thread_time_slice.o)
 .debug_abbrev  0x0000adc8      0x287 C:\Users\kirti\PK_S5D9\verify\synergy\ssp\src\framework\el\tx\cm4_gcc\libtx.a(tx_timer_expiration_process.o)

.debug_loc      0x00000000    0x1024b
 .debug_loc     0x00000000     0x2fd7 ./synergy/ssp/src/driver/r_sci_uart/r_sci_uart.o
 .debug_loc     0x00002fd7     0x15d9 ./synergy/ssp/src/driver/r_ioport/r_ioport.o
 .debug_loc     0x000045b0     0x2769 ./synergy/ssp/src/driver/r_gpt/r_gpt.o
 .debug_loc     0x00006d19      0xeae ./synergy/ssp/src/driver/r_fmi/r_fmi.o
 .debug_loc     0x00007bc7      0x29e ./synergy/ssp/src/driver/r_elc/r_elc.o
 .debug_loc     0x00007e65     0x2ace ./synergy/ssp/src/driver/r_cgc/r_cgc.o
 .debug_loc     0x0000a933     0x2e53 ./synergy/ssp/src/driver/r_adc/r_adc.o
 .debug_loc     0x0000d786       0xbf ./synergy/ssp/src/bsp/mcu/s5d9/bsp_cache.o
 .debug_loc     0x0000d845      0x136 ./synergy/ssp/src/bsp/mcu/s5d9/bsp_clocks.o
 .debug_loc     0x0000d97b      0x17f ./synergy/ssp/src/bsp/mcu/s5d9/bsp_group_irq.o
 .debug_loc     0x0000dafa      0x390 ./synergy/ssp/src/bsp/mcu/s5d9/bsp_module_stop.o
 .debug_loc     0x0000de8a       0x74 ./synergy/ssp/src/bsp/mcu/all/bsp_common.o
 .debug_loc     0x0000defe       0x34 ./synergy/ssp/src/bsp/mcu/all/bsp_common_leds.o
 .debug_loc     0x0000df32      0x140 ./synergy/ssp/src/bsp/mcu/all/bsp_delay.o
 .debug_loc     0x0000e072       0x40 ./synergy/ssp/src/bsp/mcu/all/bsp_irq.o
 .debug_loc     0x0000e0b2      0x23e ./synergy/ssp/src/bsp/mcu/all/bsp_locking.o
 .debug_loc     0x0000e2f0       0xe5 ./synergy/ssp/src/bsp/mcu/all/bsp_register_protection.o
 .debug_loc     0x0000e3d5       0xcc ./synergy/ssp/src/bsp/mcu/all/bsp_sbrk.o
 .debug_loc     0x0000e4a1       0x9c ./synergy/ssp/src/bsp/cmsis/Device/RENESAS/S5D9/Source/system_S5D9.o
 .debug_loc     0x0000e53d       0x21 ./synergy/board/s5d9_pk/bsp_init.o
 .debug_loc     0x0000e55e      0x1c9 ./synergy/board/s5d9_pk/bsp_qspi.o
 .debug_loc     0x0000e727       0x68 ./src/synergy_gen/main.o
 .debug_loc     0x0000e78f       0x8e ./src/synergy_gen/thread0.o
 .debug_loc     0x0000e81d       0x3f ./src/thread0_entry.o
 .debug_loc     0x0000e85c      0x238 C:\Users\kirti\PK_S5D9\verify\synergy\ssp\src\framework\el\tx\cm4_gcc\libtx.a(txe_queue_create.o)
 .debug_loc     0x0000ea94      0x1ce C:\Users\kirti\PK_S5D9\verify\synergy\ssp\src\framework\el\tx\cm4_gcc\libtx.a(txe_semaphore_create.o)
 .debug_loc     0x0000ec62       0x9f C:\Users\kirti\PK_S5D9\verify\synergy\ssp\src\framework\el\tx\cm4_gcc\libtx.a(txe_semaphore_get.o)
 .debug_loc     0x0000ed01       0x3a C:\Users\kirti\PK_S5D9\verify\synergy\ssp\src\framework\el\tx\cm4_gcc\libtx.a(txe_semaphore_put.o)
 .debug_loc     0x0000ed3b      0x38d C:\Users\kirti\PK_S5D9\verify\synergy\ssp\src\framework\el\tx\cm4_gcc\libtx.a(txe_thread_create.o)
 .debug_loc     0x0000f0c8      0x147 C:\Users\kirti\PK_S5D9\verify\synergy\ssp\src\framework\el\tx\cm4_gcc\libtx.a(tx_queue_create.o)
 .debug_loc     0x0000f20f       0xec C:\Users\kirti\PK_S5D9\verify\synergy\ssp\src\framework\el\tx\cm4_gcc\libtx.a(tx_semaphore_create.o)
 .debug_loc     0x0000f2fb      0x16a C:\Users\kirti\PK_S5D9\verify\synergy\ssp\src\framework\el\tx\cm4_gcc\libtx.a(tx_semaphore_get.o)
 .debug_loc     0x0000f465       0xd9 C:\Users\kirti\PK_S5D9\verify\synergy\ssp\src\framework\el\tx\cm4_gcc\libtx.a(tx_semaphore_put.o)
 .debug_loc     0x0000f53e      0x27a C:\Users\kirti\PK_S5D9\verify\synergy\ssp\src\framework\el\tx\cm4_gcc\libtx.a(tx_thread_create.o)
 .debug_loc     0x0000f7b8       0x1e C:\Users\kirti\PK_S5D9\verify\synergy\ssp\src\framework\el\tx\cm4_gcc\libtx.a(tx_thread_shell_entry.o)
 .debug_loc     0x0000f7d6       0xdc C:\Users\kirti\PK_S5D9\verify\synergy\ssp\src\framework\el\tx\cm4_gcc\libtx.a(tx_thread_sleep.o)
 .debug_loc     0x0000f8b2       0x51 C:\Users\kirti\PK_S5D9\verify\synergy\ssp\src\framework\el\tx\cm4_gcc\libtx.a(tx_thread_system_preempt_check.o)
 .debug_loc     0x0000f903      0x123 C:\Users\kirti\PK_S5D9\verify\synergy\ssp\src\framework\el\tx\cm4_gcc\libtx.a(tx_thread_system_resume.o)
 .debug_loc     0x0000fa26      0x254 C:\Users\kirti\PK_S5D9\verify\synergy\ssp\src\framework\el\tx\cm4_gcc\libtx.a(tx_thread_system_suspend.o)
 .debug_loc     0x0000fc7a       0xff C:\Users\kirti\PK_S5D9\verify\synergy\ssp\src\framework\el\tx\cm4_gcc\libtx.a(tx_thread_timeout.o)
 .debug_loc     0x0000fd79       0xa0 C:\Users\kirti\PK_S5D9\verify\synergy\ssp\src\framework\el\tx\cm4_gcc\libtx.a(tx_timer_system_activate.o)
 .debug_loc     0x0000fe19       0x67 C:\Users\kirti\PK_S5D9\verify\synergy\ssp\src\framework\el\tx\cm4_gcc\libtx.a(tx_timer_system_deactivate.o)
 .debug_loc     0x0000fe80       0xdc C:\Users\kirti\PK_S5D9\verify\synergy\ssp\src\framework\el\tx\cm4_gcc\libtx.a(tx_initialize_low_level.o)
 .debug_loc     0x0000ff5c      0x157 C:\Users\kirti\PK_S5D9\verify\synergy\ssp\src\framework\el\tx\cm4_gcc\libtx.a(tx_semaphore_cleanup.o)
 .debug_loc     0x000100b3       0x5a C:\Users\kirti\PK_S5D9\verify\synergy\ssp\src\framework\el\tx\cm4_gcc\libtx.a(tx_thread_time_slice.o)
 .debug_loc     0x0001010d      0x13e C:\Users\kirti\PK_S5D9\verify\synergy\ssp\src\framework\el\tx\cm4_gcc\libtx.a(tx_timer_expiration_process.o)

.debug_aranges  0x00000000      0xd00
 .debug_aranges
                0x00000000       0xd0 ./synergy/ssp/src/driver/r_sci_uart/r_sci_uart.o
 .debug_aranges
                0x000000d0       0xa0 ./synergy/ssp/src/driver/r_ioport/r_ioport.o
 .debug_aranges
                0x00000170       0x80 ./synergy/ssp/src/driver/r_gpt/r_gpt.o
 .debug_aranges
                0x000001f0       0x48 ./synergy/ssp/src/driver/r_fmi/r_fmi.o
 .debug_aranges
                0x00000238       0x50 ./synergy/ssp/src/driver/r_elc/r_elc.o
 .debug_aranges
                0x00000288      0x138 ./synergy/ssp/src/driver/r_cgc/r_cgc.o
 .debug_aranges
                0x000003c0       0xa8 ./synergy/ssp/src/driver/r_adc/r_adc.o
 .debug_aranges
                0x00000468       0x28 ./synergy/ssp/src/bsp/mcu/s5d9/bsp_cache.o
 .debug_aranges
                0x00000490       0x30 ./synergy/ssp/src/bsp/mcu/s5d9/bsp_clocks.o
 .debug_aranges
                0x000004c0       0x88 ./synergy/ssp/src/bsp/mcu/s5d9/bsp_feature.o
 .debug_aranges
                0x00000548       0x18 ./synergy/ssp/src/bsp/mcu/s5d9/bsp_fmi_R7FS5D97E3A01CFC.o
 .debug_aranges
                0x00000560       0x38 ./synergy/ssp/src/bsp/mcu/s5d9/bsp_group_irq.o
 .debug_aranges
                0x00000598       0x18 ./synergy/ssp/src/bsp/mcu/s5d9/bsp_hw_locks.o
 .debug_aranges
                0x000005b0       0x48 ./synergy/ssp/src/bsp/mcu/s5d9/bsp_module_stop.o
 .debug_aranges
                0x000005f8       0x18 ./synergy/ssp/src/bsp/mcu/s5d9/bsp_rom_registers.o
 .debug_aranges
                0x00000610       0x30 ./synergy/ssp/src/bsp/mcu/all/bsp_common.o
 .debug_aranges
                0x00000640       0x20 ./synergy/ssp/src/bsp/mcu/all/bsp_common_leds.o
 .debug_aranges
                0x00000660       0x28 ./synergy/ssp/src/bsp/mcu/all/bsp_delay.o
 .debug_aranges
                0x00000688       0x28 ./synergy/ssp/src/bsp/mcu/all/bsp_irq.o
 .debug_aranges
                0x000006b0       0x40 ./synergy/ssp/src/bsp/mcu/all/bsp_locking.o
 .debug_aranges
                0x000006f0       0x30 ./synergy/ssp/src/bsp/mcu/all/bsp_register_protection.o
 .debug_aranges
                0x00000720       0x20 ./synergy/ssp/src/bsp/mcu/all/bsp_sbrk.o
 .debug_aranges
                0x00000740       0x28 ./synergy/ssp/src/bsp/cmsis/Device/RENESAS/S5D9/Source/startup_S5D9.o
 .debug_aranges
                0x00000768       0x30 ./synergy/ssp/src/bsp/cmsis/Device/RENESAS/S5D9/Source/system_S5D9.o
 .debug_aranges
                0x00000798       0x20 ./synergy/board/s5d9_pk/bsp_init.o
 .debug_aranges
                0x000007b8       0x18 ./synergy/board/s5d9_pk/bsp_leds.o
 .debug_aranges
                0x000007d0       0x58 ./synergy/board/s5d9_pk/bsp_qspi.o
 .debug_aranges
                0x00000828       0x20 ./src/synergy_gen/common_data.o
 .debug_aranges
                0x00000848       0x20 ./src/synergy_gen/hal_data.o
 .debug_aranges
                0x00000868       0x40 ./src/synergy_gen/main.o
 .debug_aranges
                0x000008a8       0x18 ./src/synergy_gen/pin_data.o
 .debug_aranges
                0x000008c0       0x28 ./src/synergy_gen/thread0.o
 .debug_aranges
                0x000008e8       0x20 ./src/thread0_entry.o
 .debug_aranges
                0x00000908       0x20 C:\Users\kirti\PK_S5D9\verify\synergy\ssp\src\framework\el\tx\cm4_gcc\libtx.a(txe_queue_create.o)
 .debug_aranges
                0x00000928       0x20 C:\Users\kirti\PK_S5D9\verify\synergy\ssp\src\framework\el\tx\cm4_gcc\libtx.a(txe_semaphore_create.o)
 .debug_aranges
                0x00000948       0x20 C:\Users\kirti\PK_S5D9\verify\synergy\ssp\src\framework\el\tx\cm4_gcc\libtx.a(txe_semaphore_get.o)
 .debug_aranges
                0x00000968       0x20 C:\Users\kirti\PK_S5D9\verify\synergy\ssp\src\framework\el\tx\cm4_gcc\libtx.a(txe_semaphore_put.o)
 .debug_aranges
                0x00000988       0x20 C:\Users\kirti\PK_S5D9\verify\synergy\ssp\src\framework\el\tx\cm4_gcc\libtx.a(txe_thread_create.o)
 .debug_aranges
                0x000009a8       0x20 C:\Users\kirti\PK_S5D9\verify\synergy\ssp\src\framework\el\tx\cm4_gcc\libtx.a(tx_initialize_high_level.o)
 .debug_aranges
                0x000009c8       0x20 C:\Users\kirti\PK_S5D9\verify\synergy\ssp\src\framework\el\tx\cm4_gcc\libtx.a(tx_initialize_kernel_enter.o)
 .debug_aranges
                0x000009e8       0x20 C:\Users\kirti\PK_S5D9\verify\synergy\ssp\src\framework\el\tx\cm4_gcc\libtx.a(tx_isr_end.o)
 .debug_aranges
                0x00000a08       0x20 C:\Users\kirti\PK_S5D9\verify\synergy\ssp\src\framework\el\tx\cm4_gcc\libtx.a(tx_isr_start.o)
 .debug_aranges
                0x00000a28       0x20 C:\Users\kirti\PK_S5D9\verify\synergy\ssp\src\framework\el\tx\cm4_gcc\libtx.a(tx_queue_create.o)
 .debug_aranges
                0x00000a48       0x20 C:\Users\kirti\PK_S5D9\verify\synergy\ssp\src\framework\el\tx\cm4_gcc\libtx.a(tx_semaphore_create.o)
 .debug_aranges
                0x00000a68       0x20 C:\Users\kirti\PK_S5D9\verify\synergy\ssp\src\framework\el\tx\cm4_gcc\libtx.a(tx_semaphore_get.o)
 .debug_aranges
                0x00000a88       0x20 C:\Users\kirti\PK_S5D9\verify\synergy\ssp\src\framework\el\tx\cm4_gcc\libtx.a(tx_semaphore_put.o)
 .debug_aranges
                0x00000aa8       0x20 C:\Users\kirti\PK_S5D9\verify\synergy\ssp\src\framework\el\tx\cm4_gcc\libtx.a(tx_thread_create.o)
 .debug_aranges
                0x00000ac8       0x20 C:\Users\kirti\PK_S5D9\verify\synergy\ssp\src\framework\el\tx\cm4_gcc\libtx.a(tx_thread_initialize.o)
 .debug_aranges
                0x00000ae8       0x20 C:\Users\kirti\PK_S5D9\verify\synergy\ssp\src\framework\el\tx\cm4_gcc\libtx.a(tx_thread_shell_entry.o)
 .debug_aranges
                0x00000b08       0x20 C:\Users\kirti\PK_S5D9\verify\synergy\ssp\src\framework\el\tx\cm4_gcc\libtx.a(tx_thread_sleep.o)
 .debug_aranges
                0x00000b28       0x20 C:\Users\kirti\PK_S5D9\verify\synergy\ssp\src\framework\el\tx\cm4_gcc\libtx.a(tx_thread_system_preempt_check.o)
 .debug_aranges
                0x00000b48       0x20 C:\Users\kirti\PK_S5D9\verify\synergy\ssp\src\framework\el\tx\cm4_gcc\libtx.a(tx_thread_system_resume.o)
 .debug_aranges
                0x00000b68       0x20 C:\Users\kirti\PK_S5D9\verify\synergy\ssp\src\framework\el\tx\cm4_gcc\libtx.a(tx_thread_system_suspend.o)
 .debug_aranges
                0x00000b88       0x20 C:\Users\kirti\PK_S5D9\verify\synergy\ssp\src\framework\el\tx\cm4_gcc\libtx.a(tx_thread_timeout.o)
 .debug_aranges
                0x00000ba8       0x20 C:\Users\kirti\PK_S5D9\verify\synergy\ssp\src\framework\el\tx\cm4_gcc\libtx.a(tx_timer_initialize.o)
 .debug_aranges
                0x00000bc8       0x20 C:\Users\kirti\PK_S5D9\verify\synergy\ssp\src\framework\el\tx\cm4_gcc\libtx.a(tx_timer_system_activate.o)
 .debug_aranges
                0x00000be8       0x20 C:\Users\kirti\PK_S5D9\verify\synergy\ssp\src\framework\el\tx\cm4_gcc\libtx.a(tx_timer_system_deactivate.o)
 .debug_aranges
                0x00000c08       0x20 C:\Users\kirti\PK_S5D9\verify\synergy\ssp\src\framework\el\tx\cm4_gcc\libtx.a(tx_initialize_low_level.o)
 .debug_aranges
                0x00000c28       0x38 C:\Users\kirti\PK_S5D9\verify\synergy\ssp\src\framework\el\tx\cm4_gcc\libtx.a(tx_thread_schedule.o)
 .debug_aranges
                0x00000c60       0x20 C:\Users\kirti\PK_S5D9\verify\synergy\ssp\src\framework\el\tx\cm4_gcc\libtx.a(tx_thread_stack_build.o)
 .debug_aranges
                0x00000c80       0x20 C:\Users\kirti\PK_S5D9\verify\synergy\ssp\src\framework\el\tx\cm4_gcc\libtx.a(tx_timer_interrupt.o)
 .debug_aranges
                0x00000ca0       0x20 C:\Users\kirti\PK_S5D9\verify\synergy\ssp\src\framework\el\tx\cm4_gcc\libtx.a(tx_semaphore_cleanup.o)
 .debug_aranges
                0x00000cc0       0x20 C:\Users\kirti\PK_S5D9\verify\synergy\ssp\src\framework\el\tx\cm4_gcc\libtx.a(tx_thread_time_slice.o)
 .debug_aranges
                0x00000ce0       0x20 C:\Users\kirti\PK_S5D9\verify\synergy\ssp\src\framework\el\tx\cm4_gcc\libtx.a(tx_timer_expiration_process.o)

.debug_ranges   0x00000000     0x2f10
 .debug_ranges  0x00000000      0x998 ./synergy/ssp/src/driver/r_sci_uart/r_sci_uart.o
 .debug_ranges  0x00000998      0x468 ./synergy/ssp/src/driver/r_ioport/r_ioport.o
 .debug_ranges  0x00000e00      0x4d8 ./synergy/ssp/src/driver/r_gpt/r_gpt.o
 .debug_ranges  0x000012d8      0x170 ./synergy/ssp/src/driver/r_fmi/r_fmi.o
 .debug_ranges  0x00001448       0xf0 ./synergy/ssp/src/driver/r_elc/r_elc.o
 .debug_ranges  0x00001538      0xa18 ./synergy/ssp/src/driver/r_cgc/r_cgc.o
 .debug_ranges  0x00001f50      0x848 ./synergy/ssp/src/driver/r_adc/r_adc.o
 .debug_ranges  0x00002798       0x18 ./synergy/ssp/src/bsp/mcu/s5d9/bsp_cache.o
 .debug_ranges  0x000027b0       0xe8 ./synergy/ssp/src/bsp/mcu/s5d9/bsp_clocks.o
 .debug_ranges  0x00002898       0x78 ./synergy/ssp/src/bsp/mcu/s5d9/bsp_feature.o
 .debug_ranges  0x00002910       0x28 ./synergy/ssp/src/bsp/mcu/s5d9/bsp_group_irq.o
 .debug_ranges  0x00002938       0x38 ./synergy/ssp/src/bsp/mcu/s5d9/bsp_module_stop.o
 .debug_ranges  0x00002970       0x20 ./synergy/ssp/src/bsp/mcu/all/bsp_common.o
 .debug_ranges  0x00002990       0x10 ./synergy/ssp/src/bsp/mcu/all/bsp_common_leds.o
 .debug_ranges  0x000029a0       0x18 ./synergy/ssp/src/bsp/mcu/all/bsp_delay.o
 .debug_ranges  0x000029b8       0x18 ./synergy/ssp/src/bsp/mcu/all/bsp_irq.o
 .debug_ranges  0x000029d0       0xe8 ./synergy/ssp/src/bsp/mcu/all/bsp_locking.o
 .debug_ranges  0x00002ab8       0x38 ./synergy/ssp/src/bsp/mcu/all/bsp_register_protection.o
 .debug_ranges  0x00002af0       0x10 ./synergy/ssp/src/bsp/mcu/all/bsp_sbrk.o
 .debug_ranges  0x00002b00       0x18 ./synergy/ssp/src/bsp/cmsis/Device/RENESAS/S5D9/Source/startup_S5D9.o
 .debug_ranges  0x00002b18       0x68 ./synergy/ssp/src/bsp/cmsis/Device/RENESAS/S5D9/Source/system_S5D9.o
 .debug_ranges  0x00002b80       0x10 ./synergy/board/s5d9_pk/bsp_init.o
 .debug_ranges  0x00002b90       0x60 ./synergy/board/s5d9_pk/bsp_qspi.o
 .debug_ranges  0x00002bf0       0x10 ./src/synergy_gen/common_data.o
 .debug_ranges  0x00002c00       0x10 ./src/synergy_gen/hal_data.o
 .debug_ranges  0x00002c10       0x30 ./src/synergy_gen/main.o
 .debug_ranges  0x00002c40       0x18 ./src/synergy_gen/thread0.o
 .debug_ranges  0x00002c58       0x10 ./src/thread0_entry.o
 .debug_ranges  0x00002c68       0x10 C:\Users\kirti\PK_S5D9\verify\synergy\ssp\src\framework\el\tx\cm4_gcc\libtx.a(txe_queue_create.o)
 .debug_ranges  0x00002c78       0x10 C:\Users\kirti\PK_S5D9\verify\synergy\ssp\src\framework\el\tx\cm4_gcc\libtx.a(txe_semaphore_create.o)
 .debug_ranges  0x00002c88       0x10 C:\Users\kirti\PK_S5D9\verify\synergy\ssp\src\framework\el\tx\cm4_gcc\libtx.a(txe_semaphore_get.o)
 .debug_ranges  0x00002c98       0x10 C:\Users\kirti\PK_S5D9\verify\synergy\ssp\src\framework\el\tx\cm4_gcc\libtx.a(txe_semaphore_put.o)
 .debug_ranges  0x00002ca8       0x10 C:\Users\kirti\PK_S5D9\verify\synergy\ssp\src\framework\el\tx\cm4_gcc\libtx.a(txe_thread_create.o)
 .debug_ranges  0x00002cb8       0x10 C:\Users\kirti\PK_S5D9\verify\synergy\ssp\src\framework\el\tx\cm4_gcc\libtx.a(tx_initialize_high_level.o)
 .debug_ranges  0x00002cc8       0x10 C:\Users\kirti\PK_S5D9\verify\synergy\ssp\src\framework\el\tx\cm4_gcc\libtx.a(tx_initialize_kernel_enter.o)
 .debug_ranges  0x00002cd8       0x10 C:\Users\kirti\PK_S5D9\verify\synergy\ssp\src\framework\el\tx\cm4_gcc\libtx.a(tx_isr_end.o)
 .debug_ranges  0x00002ce8       0x10 C:\Users\kirti\PK_S5D9\verify\synergy\ssp\src\framework\el\tx\cm4_gcc\libtx.a(tx_isr_start.o)
 .debug_ranges  0x00002cf8       0x10 C:\Users\kirti\PK_S5D9\verify\synergy\ssp\src\framework\el\tx\cm4_gcc\libtx.a(tx_queue_create.o)
 .debug_ranges  0x00002d08       0x10 C:\Users\kirti\PK_S5D9\verify\synergy\ssp\src\framework\el\tx\cm4_gcc\libtx.a(tx_semaphore_create.o)
 .debug_ranges  0x00002d18       0x10 C:\Users\kirti\PK_S5D9\verify\synergy\ssp\src\framework\el\tx\cm4_gcc\libtx.a(tx_semaphore_get.o)
 .debug_ranges  0x00002d28       0x10 C:\Users\kirti\PK_S5D9\verify\synergy\ssp\src\framework\el\tx\cm4_gcc\libtx.a(tx_semaphore_put.o)
 .debug_ranges  0x00002d38       0x28 C:\Users\kirti\PK_S5D9\verify\synergy\ssp\src\framework\el\tx\cm4_gcc\libtx.a(tx_thread_create.o)
 .debug_ranges  0x00002d60       0x10 C:\Users\kirti\PK_S5D9\verify\synergy\ssp\src\framework\el\tx\cm4_gcc\libtx.a(tx_thread_initialize.o)
 .debug_ranges  0x00002d70       0x10 C:\Users\kirti\PK_S5D9\verify\synergy\ssp\src\framework\el\tx\cm4_gcc\libtx.a(tx_thread_shell_entry.o)
 .debug_ranges  0x00002d80       0x10 C:\Users\kirti\PK_S5D9\verify\synergy\ssp\src\framework\el\tx\cm4_gcc\libtx.a(tx_thread_sleep.o)
 .debug_ranges  0x00002d90       0x10 C:\Users\kirti\PK_S5D9\verify\synergy\ssp\src\framework\el\tx\cm4_gcc\libtx.a(tx_thread_system_preempt_check.o)
 .debug_ranges  0x00002da0       0x10 C:\Users\kirti\PK_S5D9\verify\synergy\ssp\src\framework\el\tx\cm4_gcc\libtx.a(tx_thread_system_resume.o)
 .debug_ranges  0x00002db0       0x10 C:\Users\kirti\PK_S5D9\verify\synergy\ssp\src\framework\el\tx\cm4_gcc\libtx.a(tx_thread_system_suspend.o)
 .debug_ranges  0x00002dc0       0x10 C:\Users\kirti\PK_S5D9\verify\synergy\ssp\src\framework\el\tx\cm4_gcc\libtx.a(tx_thread_timeout.o)
 .debug_ranges  0x00002dd0       0x10 C:\Users\kirti\PK_S5D9\verify\synergy\ssp\src\framework\el\tx\cm4_gcc\libtx.a(tx_timer_initialize.o)
 .debug_ranges  0x00002de0       0x10 C:\Users\kirti\PK_S5D9\verify\synergy\ssp\src\framework\el\tx\cm4_gcc\libtx.a(tx_timer_system_activate.o)
 .debug_ranges  0x00002df0       0x10 C:\Users\kirti\PK_S5D9\verify\synergy\ssp\src\framework\el\tx\cm4_gcc\libtx.a(tx_timer_system_deactivate.o)
 .debug_ranges  0x00002e00       0x60 C:\Users\kirti\PK_S5D9\verify\synergy\ssp\src\framework\el\tx\cm4_gcc\libtx.a(tx_initialize_low_level.o)
 .debug_ranges  0x00002e60       0x28 C:\Users\kirti\PK_S5D9\verify\synergy\ssp\src\framework\el\tx\cm4_gcc\libtx.a(tx_thread_schedule.o)
 .debug_ranges  0x00002e88       0x10 C:\Users\kirti\PK_S5D9\verify\synergy\ssp\src\framework\el\tx\cm4_gcc\libtx.a(tx_thread_stack_build.o)
 .debug_ranges  0x00002e98       0x10 C:\Users\kirti\PK_S5D9\verify\synergy\ssp\src\framework\el\tx\cm4_gcc\libtx.a(tx_timer_interrupt.o)
 .debug_ranges  0x00002ea8       0x10 C:\Users\kirti\PK_S5D9\verify\synergy\ssp\src\framework\el\tx\cm4_gcc\libtx.a(tx_semaphore_cleanup.o)
 .debug_ranges  0x00002eb8       0x30 C:\Users\kirti\PK_S5D9\verify\synergy\ssp\src\framework\el\tx\cm4_gcc\libtx.a(tx_thread_time_slice.o)
 .debug_ranges  0x00002ee8       0x28 C:\Users\kirti\PK_S5D9\verify\synergy\ssp\src\framework\el\tx\cm4_gcc\libtx.a(tx_timer_expiration_process.o)

.debug_line     0x00000000    0x112da
 .debug_line    0x00000000     0x103a ./synergy/ssp/src/driver/r_sci_uart/r_sci_uart.o
 .debug_line    0x0000103a      0x930 ./synergy/ssp/src/driver/r_ioport/r_ioport.o
 .debug_line    0x0000196a      0xab2 ./synergy/ssp/src/driver/r_gpt/r_gpt.o
 .debug_line    0x0000241c      0x734 ./synergy/ssp/src/driver/r_fmi/r_fmi.o
 .debug_line    0x00002b50      0x52b ./synergy/ssp/src/driver/r_elc/r_elc.o
 .debug_line    0x0000307b     0x122f ./synergy/ssp/src/driver/r_cgc/r_cgc.o
 .debug_line    0x000042aa      0xe81 ./synergy/ssp/src/driver/r_adc/r_adc.o
 .debug_line    0x0000512b      0x382 ./synergy/ssp/src/bsp/mcu/s5d9/bsp_cache.o
 .debug_line    0x000054ad      0x477 ./synergy/ssp/src/bsp/mcu/s5d9/bsp_clocks.o
 .debug_line    0x00005924      0x50a ./synergy/ssp/src/bsp/mcu/s5d9/bsp_feature.o
 .debug_line    0x00005e2e      0x401 ./synergy/ssp/src/bsp/mcu/s5d9/bsp_fmi_R7FS5D97E3A01CFC.o
 .debug_line    0x0000622f      0x484 ./synergy/ssp/src/bsp/mcu/s5d9/bsp_group_irq.o
 .debug_line    0x000066b3      0x391 ./synergy/ssp/src/bsp/mcu/s5d9/bsp_hw_locks.o
 .debug_line    0x00006a44      0x47a ./synergy/ssp/src/bsp/mcu/s5d9/bsp_module_stop.o
 .debug_line    0x00006ebe      0x385 ./synergy/ssp/src/bsp/mcu/s5d9/bsp_rom_registers.o
 .debug_line    0x00007243      0x3cd ./synergy/ssp/src/bsp/mcu/all/bsp_common.o
 .debug_line    0x00007610      0x3a9 ./synergy/ssp/src/bsp/mcu/all/bsp_common_leds.o
 .debug_line    0x000079b9      0x3c5 ./synergy/ssp/src/bsp/mcu/all/bsp_delay.o
 .debug_line    0x00007d7e      0x3ac ./synergy/ssp/src/bsp/mcu/all/bsp_irq.o
 .debug_line    0x0000812a      0x4a6 ./synergy/ssp/src/bsp/mcu/all/bsp_locking.o
 .debug_line    0x000085d0      0x42f ./synergy/ssp/src/bsp/mcu/all/bsp_register_protection.o
 .debug_line    0x000089ff      0x406 ./synergy/ssp/src/bsp/mcu/all/bsp_sbrk.o
 .debug_line    0x00008e05      0x3bb ./synergy/ssp/src/bsp/cmsis/Device/RENESAS/S5D9/Source/startup_S5D9.o
 .debug_line    0x000091c0      0x6e4 ./synergy/ssp/src/bsp/cmsis/Device/RENESAS/S5D9/Source/system_S5D9.o
 .debug_line    0x000098a4      0x376 ./synergy/board/s5d9_pk/bsp_init.o
 .debug_line    0x00009c1a      0x39c ./synergy/board/s5d9_pk/bsp_leds.o
 .debug_line    0x00009fb6      0x556 ./synergy/board/s5d9_pk/bsp_qspi.o
 .debug_line    0x0000a50c      0x3e7 ./src/synergy_gen/common_data.o
 .debug_line    0x0000a8f3      0x391 ./src/synergy_gen/hal_data.o
 .debug_line    0x0000ac84      0x534 ./src/synergy_gen/main.o
 .debug_line    0x0000b1b8      0x38f ./src/synergy_gen/pin_data.o
 .debug_line    0x0000b547      0x5cc ./src/synergy_gen/thread0.o
 .debug_line    0x0000bb13      0x67a ./src/thread0_entry.o
 .debug_line    0x0000c18d      0x2ea C:\Users\kirti\PK_S5D9\verify\synergy\ssp\src\framework\el\tx\cm4_gcc\libtx.a(txe_queue_create.o)
 .debug_line    0x0000c477      0x2eb C:\Users\kirti\PK_S5D9\verify\synergy\ssp\src\framework\el\tx\cm4_gcc\libtx.a(txe_semaphore_create.o)
 .debug_line    0x0000c762      0x26f C:\Users\kirti\PK_S5D9\verify\synergy\ssp\src\framework\el\tx\cm4_gcc\libtx.a(txe_semaphore_get.o)
 .debug_line    0x0000c9d1      0x239 C:\Users\kirti\PK_S5D9\verify\synergy\ssp\src\framework\el\tx\cm4_gcc\libtx.a(txe_semaphore_put.o)
 .debug_line    0x0000cc0a      0x2f9 C:\Users\kirti\PK_S5D9\verify\synergy\ssp\src\framework\el\tx\cm4_gcc\libtx.a(txe_thread_create.o)
 .debug_line    0x0000cf03      0x2de C:\Users\kirti\PK_S5D9\verify\synergy\ssp\src\framework\el\tx\cm4_gcc\libtx.a(tx_initialize_high_level.o)
 .debug_line    0x0000d1e1      0x26d C:\Users\kirti\PK_S5D9\verify\synergy\ssp\src\framework\el\tx\cm4_gcc\libtx.a(tx_initialize_kernel_enter.o)
 .debug_line    0x0000d44e      0x20a C:\Users\kirti\PK_S5D9\verify\synergy\ssp\src\framework\el\tx\cm4_gcc\libtx.a(tx_isr_end.o)
 .debug_line    0x0000d658      0x20c C:\Users\kirti\PK_S5D9\verify\synergy\ssp\src\framework\el\tx\cm4_gcc\libtx.a(tx_isr_start.o)
 .debug_line    0x0000d864      0x281 C:\Users\kirti\PK_S5D9\verify\synergy\ssp\src\framework\el\tx\cm4_gcc\libtx.a(tx_queue_create.o)
 .debug_line    0x0000dae5      0x269 C:\Users\kirti\PK_S5D9\verify\synergy\ssp\src\framework\el\tx\cm4_gcc\libtx.a(tx_semaphore_create.o)
 .debug_line    0x0000dd4e      0x2ba C:\Users\kirti\PK_S5D9\verify\synergy\ssp\src\framework\el\tx\cm4_gcc\libtx.a(tx_semaphore_get.o)
 .debug_line    0x0000e008      0x293 C:\Users\kirti\PK_S5D9\verify\synergy\ssp\src\framework\el\tx\cm4_gcc\libtx.a(tx_semaphore_put.o)
 .debug_line    0x0000e29b      0x360 C:\Users\kirti\PK_S5D9\verify\synergy\ssp\src\framework\el\tx\cm4_gcc\libtx.a(tx_thread_create.o)
 .debug_line    0x0000e5fb      0x290 C:\Users\kirti\PK_S5D9\verify\synergy\ssp\src\framework\el\tx\cm4_gcc\libtx.a(tx_thread_initialize.o)
 .debug_line    0x0000e88b      0x26a C:\Users\kirti\PK_S5D9\verify\synergy\ssp\src\framework\el\tx\cm4_gcc\libtx.a(tx_thread_shell_entry.o)
 .debug_line    0x0000eaf5      0x29c C:\Users\kirti\PK_S5D9\verify\synergy\ssp\src\framework\el\tx\cm4_gcc\libtx.a(tx_thread_sleep.o)
 .debug_line    0x0000ed91      0x25d C:\Users\kirti\PK_S5D9\verify\synergy\ssp\src\framework\el\tx\cm4_gcc\libtx.a(tx_thread_system_preempt_check.o)
 .debug_line    0x0000efee      0x2e5 C:\Users\kirti\PK_S5D9\verify\synergy\ssp\src\framework\el\tx\cm4_gcc\libtx.a(tx_thread_system_resume.o)
 .debug_line    0x0000f2d3      0x2fe C:\Users\kirti\PK_S5D9\verify\synergy\ssp\src\framework\el\tx\cm4_gcc\libtx.a(tx_thread_system_suspend.o)
 .debug_line    0x0000f5d1      0x276 C:\Users\kirti\PK_S5D9\verify\synergy\ssp\src\framework\el\tx\cm4_gcc\libtx.a(tx_thread_timeout.o)
 .debug_line    0x0000f847      0x288 C:\Users\kirti\PK_S5D9\verify\synergy\ssp\src\framework\el\tx\cm4_gcc\libtx.a(tx_timer_initialize.o)
 .debug_line    0x0000facf      0x25c C:\Users\kirti\PK_S5D9\verify\synergy\ssp\src\framework\el\tx\cm4_gcc\libtx.a(tx_timer_system_activate.o)
 .debug_line    0x0000fd2b      0x24a C:\Users\kirti\PK_S5D9\verify\synergy\ssp\src\framework\el\tx\cm4_gcc\libtx.a(tx_timer_system_deactivate.o)
 .debug_line    0x0000ff75      0x2f2 C:\Users\kirti\PK_S5D9\verify\synergy\ssp\src\framework\el\tx\cm4_gcc\libtx.a(tx_initialize_low_level.o)
 .debug_line    0x00010267      0x339 C:\Users\kirti\PK_S5D9\verify\synergy\ssp\src\framework\el\tx\cm4_gcc\libtx.a(tx_thread_schedule.o)
 .debug_line    0x000105a0      0x27a C:\Users\kirti\PK_S5D9\verify\synergy\ssp\src\framework\el\tx\cm4_gcc\libtx.a(tx_thread_stack_build.o)
 .debug_line    0x0001081a      0x2b5 C:\Users\kirti\PK_S5D9\verify\synergy\ssp\src\framework\el\tx\cm4_gcc\libtx.a(tx_timer_interrupt.o)
 .debug_line    0x00010acf      0x29c C:\Users\kirti\PK_S5D9\verify\synergy\ssp\src\framework\el\tx\cm4_gcc\libtx.a(tx_semaphore_cleanup.o)
 .debug_line    0x00010d6b      0x286 C:\Users\kirti\PK_S5D9\verify\synergy\ssp\src\framework\el\tx\cm4_gcc\libtx.a(tx_thread_time_slice.o)
 .debug_line    0x00010ff1      0x2e9 C:\Users\kirti\PK_S5D9\verify\synergy\ssp\src\framework\el\tx\cm4_gcc\libtx.a(tx_timer_expiration_process.o)

.debug_str      0x00000000    0x15b15
 .debug_str     0x00000000     0x819b ./synergy/ssp/src/driver/r_sci_uart/r_sci_uart.o
                               0x84a2 (size before relaxing)
 .debug_str     0x0000819b     0x211d ./synergy/ssp/src/driver/r_ioport/r_ioport.o
                               0x82fc (size before relaxing)
 .debug_str     0x0000a2b8     0x1df6 ./synergy/ssp/src/driver/r_gpt/r_gpt.o
                               0x763d (size before relaxing)
 .debug_str     0x0000c0ae      0x947 ./synergy/ssp/src/driver/r_fmi/r_fmi.o
                               0x573c (size before relaxing)
 .debug_str     0x0000c9f5      0x40e ./synergy/ssp/src/driver/r_elc/r_elc.o
                               0x57d3 (size before relaxing)
 .debug_str     0x0000ce03     0x10c8 ./synergy/ssp/src/driver/r_cgc/r_cgc.o
                               0x7d24 (size before relaxing)
 .debug_str     0x0000decb     0x24f4 ./synergy/ssp/src/driver/r_adc/r_adc.o
                               0x8aad (size before relaxing)
 .debug_str     0x000103bf       0x7b ./synergy/ssp/src/bsp/mcu/s5d9/bsp_cache.o
                               0x4d47 (size before relaxing)
 .debug_str     0x0001043a      0x1f3 ./synergy/ssp/src/bsp/mcu/s5d9/bsp_clocks.o
                               0x57be (size before relaxing)
 .debug_str     0x0001062d      0x50e ./synergy/ssp/src/bsp/mcu/s5d9/bsp_feature.o
                               0x6389 (size before relaxing)
 .debug_str     0x00010b3b     0x52eb ./synergy/ssp/src/bsp/mcu/s5d9/bsp_fmi_R7FS5D97E3A01CFC.o
 .debug_str     0x00010b3b      0x368 ./synergy/ssp/src/bsp/mcu/s5d9/bsp_group_irq.o
                               0x583d (size before relaxing)
 .debug_str     0x00010ea3     0x135e ./synergy/ssp/src/bsp/mcu/s5d9/bsp_hw_locks.o
                               0x6643 (size before relaxing)
 .debug_str     0x00012201      0x2da ./synergy/ssp/src/bsp/mcu/s5d9/bsp_module_stop.o
                               0x61d6 (size before relaxing)
 .debug_str     0x000124db       0x57 ./synergy/ssp/src/bsp/mcu/s5d9/bsp_rom_registers.o
                               0x5337 (size before relaxing)
 .debug_str     0x00012532       0xcb ./synergy/ssp/src/bsp/mcu/all/bsp_common.o
                               0x53c2 (size before relaxing)
 .debug_str     0x000125fd       0x6b ./synergy/ssp/src/bsp/mcu/all/bsp_common_leds.o
                               0x5d58 (size before relaxing)
 .debug_str     0x00012668       0xa8 ./synergy/ssp/src/bsp/mcu/all/bsp_delay.o
                               0x4d66 (size before relaxing)
 .debug_str     0x00012710       0x84 ./synergy/ssp/src/bsp/mcu/all/bsp_irq.o
                               0x577e (size before relaxing)
 .debug_str     0x00012794      0x126 ./synergy/ssp/src/bsp/mcu/all/bsp_locking.o
                               0x5473 (size before relaxing)
 .debug_str     0x000128ba       0xa7 ./synergy/ssp/src/bsp/mcu/all/bsp_register_protection.o
                               0x5ffd (size before relaxing)
 .debug_str     0x00012961       0xb2 ./synergy/ssp/src/bsp/mcu/all/bsp_sbrk.o
                               0x50c5 (size before relaxing)
 .debug_str     0x00012a13       0x93 ./synergy/ssp/src/bsp/cmsis/Device/RENESAS/S5D9/Source/startup_S5D9.o
                               0x537d (size before relaxing)
 .debug_str     0x00012aa6      0x2ba ./synergy/ssp/src/bsp/cmsis/Device/RENESAS/S5D9/Source/system_S5D9.o
                               0x7521 (size before relaxing)
 .debug_str     0x00012d60       0x32 ./synergy/board/s5d9_pk/bsp_init.o
                               0x4c6e (size before relaxing)
 .debug_str     0x00012d92       0x33 ./synergy/board/s5d9_pk/bsp_leds.o
                               0x6400 (size before relaxing)
 .debug_str     0x00012dc5      0x804 ./synergy/board/s5d9_pk/bsp_qspi.o
                               0x5dee (size before relaxing)
 .debug_str     0x000135c9       0xcc ./src/synergy_gen/common_data.o
                               0x72b6 (size before relaxing)
 .debug_str     0x00013695       0x29 ./src/synergy_gen/hal_data.o
                               0x6c0a (size before relaxing)
 .debug_str     0x000136be      0x833 ./src/synergy_gen/main.o
                               0x5f5d (size before relaxing)
 .debug_str     0x00013ef1      0x1fc ./src/synergy_gen/pin_data.o
                               0x6c11 (size before relaxing)
 .debug_str     0x000140ed      0x51e ./src/synergy_gen/thread0.o
                               0xa337 (size before relaxing)
 .debug_str     0x0001460b       0x53 ./src/thread0_entry.o
                               0x9986 (size before relaxing)
 .debug_str     0x0001465e      0x3ff C:\Users\kirti\PK_S5D9\verify\synergy\ssp\src\framework\el\tx\cm4_gcc\libtx.a(txe_queue_create.o)
                               0x1134 (size before relaxing)
 .debug_str     0x00014a5d       0xc9 C:\Users\kirti\PK_S5D9\verify\synergy\ssp\src\framework\el\tx\cm4_gcc\libtx.a(txe_semaphore_create.o)
                               0x10e3 (size before relaxing)
 .debug_str     0x00014b26       0x51 C:\Users\kirti\PK_S5D9\verify\synergy\ssp\src\framework\el\tx\cm4_gcc\libtx.a(txe_semaphore_get.o)
                               0x101f (size before relaxing)
 .debug_str     0x00014b77       0x45 C:\Users\kirti\PK_S5D9\verify\synergy\ssp\src\framework\el\tx\cm4_gcc\libtx.a(txe_semaphore_put.o)
                                0xd4e (size before relaxing)
 .debug_str     0x00014bbc       0xab C:\Users\kirti\PK_S5D9\verify\synergy\ssp\src\framework\el\tx\cm4_gcc\libtx.a(txe_thread_create.o)
                               0x104c (size before relaxing)
 .debug_str     0x00014c67      0x53c C:\Users\kirti\PK_S5D9\verify\synergy\ssp\src\framework\el\tx\cm4_gcc\libtx.a(tx_initialize_high_level.o)
                               0x163a (size before relaxing)
 .debug_str     0x000151a3       0x69 C:\Users\kirti\PK_S5D9\verify\synergy\ssp\src\framework\el\tx\cm4_gcc\libtx.a(tx_initialize_kernel_enter.o)
                                0xf5e (size before relaxing)
 .debug_str     0x0001520c       0x33 C:\Users\kirti\PK_S5D9\verify\synergy\ssp\src\framework\el\tx\cm4_gcc\libtx.a(tx_isr_end.o)
                                0x618 (size before relaxing)
 .debug_str     0x0001523f       0x2e C:\Users\kirti\PK_S5D9\verify\synergy\ssp\src\framework\el\tx\cm4_gcc\libtx.a(tx_isr_start.o)
                                0x61c (size before relaxing)
 .debug_str     0x0001526d       0x5c C:\Users\kirti\PK_S5D9\verify\synergy\ssp\src\framework\el\tx\cm4_gcc\libtx.a(tx_queue_create.o)
                                0xe3a (size before relaxing)
 .debug_str     0x000152c9       0x48 C:\Users\kirti\PK_S5D9\verify\synergy\ssp\src\framework\el\tx\cm4_gcc\libtx.a(tx_semaphore_create.o)
                                0xdb9 (size before relaxing)
 .debug_str     0x00015311       0x5c C:\Users\kirti\PK_S5D9\verify\synergy\ssp\src\framework\el\tx\cm4_gcc\libtx.a(tx_semaphore_get.o)
                                0xef4 (size before relaxing)
 .debug_str     0x0001536d       0x4b C:\Users\kirti\PK_S5D9\verify\synergy\ssp\src\framework\el\tx\cm4_gcc\libtx.a(tx_semaphore_put.o)
                                0xef0 (size before relaxing)
 .debug_str     0x000153b8       0x73 C:\Users\kirti\PK_S5D9\verify\synergy\ssp\src\framework\el\tx\cm4_gcc\libtx.a(tx_thread_create.o)
                                0xef8 (size before relaxing)
 .debug_str     0x0001542b       0x50 C:\Users\kirti\PK_S5D9\verify\synergy\ssp\src\framework\el\tx\cm4_gcc\libtx.a(tx_thread_initialize.o)
                                0xda4 (size before relaxing)
 .debug_str     0x0001547b       0x4e C:\Users\kirti\PK_S5D9\verify\synergy\ssp\src\framework\el\tx\cm4_gcc\libtx.a(tx_thread_shell_entry.o)
                                0xdc3 (size before relaxing)
 .debug_str     0x000154c9       0x3d C:\Users\kirti\PK_S5D9\verify\synergy\ssp\src\framework\el\tx\cm4_gcc\libtx.a(tx_thread_sleep.o)
                                0xf69 (size before relaxing)
 .debug_str     0x00015506       0xa6 C:\Users\kirti\PK_S5D9\verify\synergy\ssp\src\framework\el\tx\cm4_gcc\libtx.a(tx_thread_system_preempt_check.o)
                                0xe98 (size before relaxing)
 .debug_str     0x000155ac       0x74 C:\Users\kirti\PK_S5D9\verify\synergy\ssp\src\framework\el\tx\cm4_gcc\libtx.a(tx_thread_system_resume.o)
                               0x1072 (size before relaxing)
 .debug_str     0x00015620       0x6f C:\Users\kirti\PK_S5D9\verify\synergy\ssp\src\framework\el\tx\cm4_gcc\libtx.a(tx_thread_system_suspend.o)
                               0x1096 (size before relaxing)
 .debug_str     0x0001568f       0x54 C:\Users\kirti\PK_S5D9\verify\synergy\ssp\src\framework\el\tx\cm4_gcc\libtx.a(tx_thread_timeout.o)
                                0xf6f (size before relaxing)
 .debug_str     0x000156e3       0x35 C:\Users\kirti\PK_S5D9\verify\synergy\ssp\src\framework\el\tx\cm4_gcc\libtx.a(tx_timer_initialize.o)
                                0xeee (size before relaxing)
 .debug_str     0x00015718       0x6a C:\Users\kirti\PK_S5D9\verify\synergy\ssp\src\framework\el\tx\cm4_gcc\libtx.a(tx_timer_system_activate.o)
                                0x91d (size before relaxing)
 .debug_str     0x00015782       0x3c C:\Users\kirti\PK_S5D9\verify\synergy\ssp\src\framework\el\tx\cm4_gcc\libtx.a(tx_timer_system_deactivate.o)
                                0x8fa (size before relaxing)
 .debug_str     0x000157be       0xd4 C:\Users\kirti\PK_S5D9\verify\synergy\ssp\src\framework\el\tx\cm4_gcc\libtx.a(tx_initialize_low_level.o)
                               0x1173 (size before relaxing)
 .debug_str     0x00015892       0xdb C:\Users\kirti\PK_S5D9\verify\synergy\ssp\src\framework\el\tx\cm4_gcc\libtx.a(tx_thread_schedule.o)
                               0x1ea2 (size before relaxing)
 .debug_str     0x0001596d       0x4c C:\Users\kirti\PK_S5D9\verify\synergy\ssp\src\framework\el\tx\cm4_gcc\libtx.a(tx_thread_stack_build.o)
                                0xd77 (size before relaxing)
 .debug_str     0x000159b9       0x6f C:\Users\kirti\PK_S5D9\verify\synergy\ssp\src\framework\el\tx\cm4_gcc\libtx.a(tx_timer_interrupt.o)
                                0xf7f (size before relaxing)
 .debug_str     0x00015a28       0x4c C:\Users\kirti\PK_S5D9\verify\synergy\ssp\src\framework\el\tx\cm4_gcc\libtx.a(tx_semaphore_cleanup.o)
                                0xf0c (size before relaxing)
 .debug_str     0x00015a74       0x36 C:\Users\kirti\PK_S5D9\verify\synergy\ssp\src\framework\el\tx\cm4_gcc\libtx.a(tx_thread_time_slice.o)
                                0xf2a (size before relaxing)
 .debug_str     0x00015aaa       0x6b C:\Users\kirti\PK_S5D9\verify\synergy\ssp\src\framework\el\tx\cm4_gcc\libtx.a(tx_timer_expiration_process.o)
                                0xfae (size before relaxing)

.debug_frame    0x00000000     0x29f0
 .debug_frame   0x00000000      0x3b4 ./synergy/ssp/src/driver/r_sci_uart/r_sci_uart.o
 .debug_frame   0x000003b4      0x298 ./synergy/ssp/src/driver/r_ioport/r_ioport.o
 .debug_frame   0x0000064c      0x200 ./synergy/ssp/src/driver/r_gpt/r_gpt.o
 .debug_frame   0x0000084c       0xac ./synergy/ssp/src/driver/r_fmi/r_fmi.o
 .debug_frame   0x000008f8       0x9c ./synergy/ssp/src/driver/r_elc/r_elc.o
 .debug_frame   0x00000994      0x4e0 ./synergy/ssp/src/driver/r_cgc/r_cgc.o
 .debug_frame   0x00000e74      0x29c ./synergy/ssp/src/driver/r_adc/r_adc.o
 .debug_frame   0x00001110       0x30 ./synergy/ssp/src/bsp/mcu/s5d9/bsp_cache.o
 .debug_frame   0x00001140       0x7c ./synergy/ssp/src/bsp/mcu/s5d9/bsp_clocks.o
 .debug_frame   0x000011bc      0x114 ./synergy/ssp/src/bsp/mcu/s5d9/bsp_feature.o
 .debug_frame   0x000012d0       0x60 ./synergy/ssp/src/bsp/mcu/s5d9/bsp_group_irq.o
 .debug_frame   0x00001330       0xb4 ./synergy/ssp/src/bsp/mcu/s5d9/bsp_module_stop.o
 .debug_frame   0x000013e4       0x40 ./synergy/ssp/src/bsp/mcu/all/bsp_common.o
 .debug_frame   0x00001424       0x20 ./synergy/ssp/src/bsp/mcu/all/bsp_common_leds.o
 .debug_frame   0x00001444       0x58 ./synergy/ssp/src/bsp/mcu/all/bsp_delay.o
 .debug_frame   0x0000149c       0x3c ./synergy/ssp/src/bsp/mcu/all/bsp_irq.o
 .debug_frame   0x000014d8       0xa0 ./synergy/ssp/src/bsp/mcu/all/bsp_locking.o
 .debug_frame   0x00001578       0x58 ./synergy/ssp/src/bsp/mcu/all/bsp_register_protection.o
 .debug_frame   0x000015d0       0x28 ./synergy/ssp/src/bsp/mcu/all/bsp_sbrk.o
 .debug_frame   0x000015f8       0x38 ./synergy/ssp/src/bsp/cmsis/Device/RENESAS/S5D9/Source/startup_S5D9.o
 .debug_frame   0x00001630       0x5c ./synergy/ssp/src/bsp/cmsis/Device/RENESAS/S5D9/Source/system_S5D9.o
 .debug_frame   0x0000168c       0x20 ./synergy/board/s5d9_pk/bsp_init.o
 .debug_frame   0x000016ac       0xc0 ./synergy/board/s5d9_pk/bsp_qspi.o
 .debug_frame   0x0000176c       0x20 ./src/synergy_gen/common_data.o
 .debug_frame   0x0000178c       0x20 ./src/synergy_gen/hal_data.o
 .debug_frame   0x000017ac       0x84 ./src/synergy_gen/main.o
 .debug_frame   0x00001830       0x5c ./src/synergy_gen/thread0.o
 .debug_frame   0x0000188c       0x38 ./src/thread0_entry.o
 .debug_frame   0x000018c4       0x44 C:\Users\kirti\PK_S5D9\verify\synergy\ssp\src\framework\el\tx\cm4_gcc\libtx.a(txe_queue_create.o)
 .debug_frame   0x00001908       0x3c C:\Users\kirti\PK_S5D9\verify\synergy\ssp\src\framework\el\tx\cm4_gcc\libtx.a(txe_semaphore_create.o)
 .debug_frame   0x00001944       0x20 C:\Users\kirti\PK_S5D9\verify\synergy\ssp\src\framework\el\tx\cm4_gcc\libtx.a(txe_semaphore_get.o)
 .debug_frame   0x00001964       0x20 C:\Users\kirti\PK_S5D9\verify\synergy\ssp\src\framework\el\tx\cm4_gcc\libtx.a(txe_semaphore_put.o)
 .debug_frame   0x00001984       0x58 C:\Users\kirti\PK_S5D9\verify\synergy\ssp\src\framework\el\tx\cm4_gcc\libtx.a(txe_thread_create.o)
 .debug_frame   0x000019dc       0x30 C:\Users\kirti\PK_S5D9\verify\synergy\ssp\src\framework\el\tx\cm4_gcc\libtx.a(tx_initialize_high_level.o)
 .debug_frame   0x00001a0c       0x2c C:\Users\kirti\PK_S5D9\verify\synergy\ssp\src\framework\el\tx\cm4_gcc\libtx.a(tx_initialize_kernel_enter.o)
 .debug_frame   0x00001a38       0x20 C:\Users\kirti\PK_S5D9\verify\synergy\ssp\src\framework\el\tx\cm4_gcc\libtx.a(tx_isr_end.o)
 .debug_frame   0x00001a58       0x20 C:\Users\kirti\PK_S5D9\verify\synergy\ssp\src\framework\el\tx\cm4_gcc\libtx.a(tx_isr_start.o)
 .debug_frame   0x00001a78       0x30 C:\Users\kirti\PK_S5D9\verify\synergy\ssp\src\framework\el\tx\cm4_gcc\libtx.a(tx_queue_create.o)
 .debug_frame   0x00001aa8       0x30 C:\Users\kirti\PK_S5D9\verify\synergy\ssp\src\framework\el\tx\cm4_gcc\libtx.a(tx_semaphore_create.o)
 .debug_frame   0x00001ad8       0x30 C:\Users\kirti\PK_S5D9\verify\synergy\ssp\src\framework\el\tx\cm4_gcc\libtx.a(tx_semaphore_get.o)
 .debug_frame   0x00001b08       0x2c C:\Users\kirti\PK_S5D9\verify\synergy\ssp\src\framework\el\tx\cm4_gcc\libtx.a(tx_semaphore_put.o)
 .debug_frame   0x00001b34       0x38 C:\Users\kirti\PK_S5D9\verify\synergy\ssp\src\framework\el\tx\cm4_gcc\libtx.a(tx_thread_create.o)
 .debug_frame   0x00001b6c       0x2c C:\Users\kirti\PK_S5D9\verify\synergy\ssp\src\framework\el\tx\cm4_gcc\libtx.a(tx_thread_initialize.o)
 .debug_frame   0x00001b98       0x34 C:\Users\kirti\PK_S5D9\verify\synergy\ssp\src\framework\el\tx\cm4_gcc\libtx.a(tx_thread_shell_entry.o)
 .debug_frame   0x00001bcc       0x2c C:\Users\kirti\PK_S5D9\verify\synergy\ssp\src\framework\el\tx\cm4_gcc\libtx.a(tx_thread_sleep.o)
 .debug_frame   0x00001bf8       0x20 C:\Users\kirti\PK_S5D9\verify\synergy\ssp\src\framework\el\tx\cm4_gcc\libtx.a(tx_thread_system_preempt_check.o)
 .debug_frame   0x00001c18       0x30 C:\Users\kirti\PK_S5D9\verify\synergy\ssp\src\framework\el\tx\cm4_gcc\libtx.a(tx_thread_system_resume.o)
 .debug_frame   0x00001c48       0x30 C:\Users\kirti\PK_S5D9\verify\synergy\ssp\src\framework\el\tx\cm4_gcc\libtx.a(tx_thread_system_suspend.o)
 .debug_frame   0x00001c78       0x38 C:\Users\kirti\PK_S5D9\verify\synergy\ssp\src\framework\el\tx\cm4_gcc\libtx.a(tx_thread_timeout.o)
 .debug_frame   0x00001cb0       0x2c C:\Users\kirti\PK_S5D9\verify\synergy\ssp\src\framework\el\tx\cm4_gcc\libtx.a(tx_timer_initialize.o)
 .debug_frame   0x00001cdc       0x20 C:\Users\kirti\PK_S5D9\verify\synergy\ssp\src\framework\el\tx\cm4_gcc\libtx.a(tx_timer_system_activate.o)
 .debug_frame   0x00001cfc       0x20 C:\Users\kirti\PK_S5D9\verify\synergy\ssp\src\framework\el\tx\cm4_gcc\libtx.a(tx_timer_system_deactivate.o)
 .debug_frame   0x00001d1c       0x2c C:\Users\kirti\PK_S5D9\verify\synergy\ssp\src\framework\el\tx\cm4_gcc\libtx.a(tx_initialize_low_level.o)
 .debug_frame   0x00001d48       0x68 C:\Users\kirti\PK_S5D9\verify\synergy\ssp\src\framework\el\tx\cm4_gcc\libtx.a(tx_thread_schedule.o)
 .debug_frame   0x00001db0       0x20 C:\Users\kirti\PK_S5D9\verify\synergy\ssp\src\framework\el\tx\cm4_gcc\libtx.a(tx_thread_stack_build.o)
 .debug_frame   0x00001dd0       0x28 C:\Users\kirti\PK_S5D9\verify\synergy\ssp\src\framework\el\tx\cm4_gcc\libtx.a(tx_timer_interrupt.o)
 .debug_frame   0x00001df8       0x2c C:\Users\kirti\PK_S5D9\verify\synergy\ssp\src\framework\el\tx\cm4_gcc\libtx.a(tx_semaphore_cleanup.o)
 .debug_frame   0x00001e24       0x34 C:\Users\kirti\PK_S5D9\verify\synergy\ssp\src\framework\el\tx\cm4_gcc\libtx.a(tx_thread_time_slice.o)
 .debug_frame   0x00001e58       0x40 C:\Users\kirti\PK_S5D9\verify\synergy\ssp\src\framework\el\tx\cm4_gcc\libtx.a(tx_timer_expiration_process.o)
 .debug_frame   0x00001e98       0x20 c:/renesas/synergy/e2studio_v7.5.1_ssp_v1.7.5/toolchains/gcc_arm/7.2.1_2017q4/bin/../lib/gcc/arm-none-eabi/7.2.1/../../../../arm-none-eabi/lib/thumb/v7e-m/fpv4-sp/hard\libg_nano.a(lib_a-errno.o)
 .debug_frame   0x00001eb8       0x2c c:/renesas/synergy/e2studio_v7.5.1_ssp_v1.7.5/toolchains/gcc_arm/7.2.1_2017q4/bin/../lib/gcc/arm-none-eabi/7.2.1/../../../../arm-none-eabi/lib/thumb/v7e-m/fpv4-sp/hard\libg_nano.a(lib_a-memcmp.o)
 .debug_frame   0x00001ee4       0x20 c:/renesas/synergy/e2studio_v7.5.1_ssp_v1.7.5/toolchains/gcc_arm/7.2.1_2017q4/bin/../lib/gcc/arm-none-eabi/7.2.1/../../../../arm-none-eabi/lib/thumb/v7e-m/fpv4-sp/hard\libg_nano.a(lib_a-memset.o)
 .debug_frame   0x00001f04       0x74 c:/renesas/synergy/e2studio_v7.5.1_ssp_v1.7.5/toolchains/gcc_arm/7.2.1_2017q4/bin/../lib/gcc/arm-none-eabi/7.2.1/../../../../arm-none-eabi/lib/thumb/v7e-m/fpv4-sp/hard\libg_nano.a(lib_a-printf.o)
 .debug_frame   0x00001f78       0x48 c:/renesas/synergy/e2studio_v7.5.1_ssp_v1.7.5/toolchains/gcc_arm/7.2.1_2017q4/bin/../lib/gcc/arm-none-eabi/7.2.1/../../../../arm-none-eabi/lib/thumb/v7e-m/fpv4-sp/hard\libg_nano.a(lib_a-rand.o)
 .debug_frame   0x00001fc0      0x11c c:/renesas/synergy/e2studio_v7.5.1_ssp_v1.7.5/toolchains/gcc_arm/7.2.1_2017q4/bin/../lib/gcc/arm-none-eabi/7.2.1/../../../../arm-none-eabi/lib/thumb/v7e-m/fpv4-sp/hard\libg_nano.a(lib_a-findfp.o)
 .debug_frame   0x000020dc       0x54 c:/renesas/synergy/e2studio_v7.5.1_ssp_v1.7.5/toolchains/gcc_arm/7.2.1_2017q4/bin/../lib/gcc/arm-none-eabi/7.2.1/../../../../arm-none-eabi/lib/thumb/v7e-m/fpv4-sp/hard\libg_nano.a(lib_a-fwalk.o)
 .debug_frame   0x00002130       0x30 c:/renesas/synergy/e2studio_v7.5.1_ssp_v1.7.5/toolchains/gcc_arm/7.2.1_2017q4/bin/../lib/gcc/arm-none-eabi/7.2.1/../../../../arm-none-eabi/lib/thumb/v7e-m/fpv4-sp/hard\libg_nano.a(lib_a-malloc.o)
 .debug_frame   0x00002160       0x38 c:/renesas/synergy/e2studio_v7.5.1_ssp_v1.7.5/toolchains/gcc_arm/7.2.1_2017q4/bin/../lib/gcc/arm-none-eabi/7.2.1/../../../../arm-none-eabi/lib/thumb/v7e-m/fpv4-sp/hard\libg_nano.a(lib_a-nano-freer.o)
 .debug_frame   0x00002198       0x2c c:/renesas/synergy/e2studio_v7.5.1_ssp_v1.7.5/toolchains/gcc_arm/7.2.1_2017q4/bin/../lib/gcc/arm-none-eabi/7.2.1/../../../../arm-none-eabi/lib/thumb/v7e-m/fpv4-sp/hard\libg_nano.a(lib_a-nano-mallocr.o)
 .debug_frame   0x000021c4       0xac c:/renesas/synergy/e2studio_v7.5.1_ssp_v1.7.5/toolchains/gcc_arm/7.2.1_2017q4/bin/../lib/gcc/arm-none-eabi/7.2.1/../../../../arm-none-eabi/lib/thumb/v7e-m/fpv4-sp/hard\libg_nano.a(lib_a-nano-vfprintf.o)
 .debug_frame   0x00002270       0x60 c:/renesas/synergy/e2studio_v7.5.1_ssp_v1.7.5/toolchains/gcc_arm/7.2.1_2017q4/bin/../lib/gcc/arm-none-eabi/7.2.1/../../../../arm-none-eabi/lib/thumb/v7e-m/fpv4-sp/hard\libg_nano.a(lib_a-nano-vfprintf_i.o)
 .debug_frame   0x000022d0       0x2c c:/renesas/synergy/e2studio_v7.5.1_ssp_v1.7.5/toolchains/gcc_arm/7.2.1_2017q4/bin/../lib/gcc/arm-none-eabi/7.2.1/../../../../arm-none-eabi/lib/thumb/v7e-m/fpv4-sp/hard\libg_nano.a(lib_a-sbrkr.o)
 .debug_frame   0x000022fc       0x88 c:/renesas/synergy/e2studio_v7.5.1_ssp_v1.7.5/toolchains/gcc_arm/7.2.1_2017q4/bin/../lib/gcc/arm-none-eabi/7.2.1/../../../../arm-none-eabi/lib/thumb/v7e-m/fpv4-sp/hard\libg_nano.a(lib_a-stdio.o)
 .debug_frame   0x00002384       0x40 c:/renesas/synergy/e2studio_v7.5.1_ssp_v1.7.5/toolchains/gcc_arm/7.2.1_2017q4/bin/../lib/gcc/arm-none-eabi/7.2.1/../../../../arm-none-eabi/lib/thumb/v7e-m/fpv4-sp/hard\libg_nano.a(lib_a-wbuf.o)
 .debug_frame   0x000023c4       0x2c c:/renesas/synergy/e2studio_v7.5.1_ssp_v1.7.5/toolchains/gcc_arm/7.2.1_2017q4/bin/../lib/gcc/arm-none-eabi/7.2.1/../../../../arm-none-eabi/lib/thumb/v7e-m/fpv4-sp/hard\libg_nano.a(lib_a-writer.o)
 .debug_frame   0x000023f0       0x2c c:/renesas/synergy/e2studio_v7.5.1_ssp_v1.7.5/toolchains/gcc_arm/7.2.1_2017q4/bin/../lib/gcc/arm-none-eabi/7.2.1/../../../../arm-none-eabi/lib/thumb/v7e-m/fpv4-sp/hard\libg_nano.a(lib_a-wsetup.o)
 .debug_frame   0x0000241c       0x2c c:/renesas/synergy/e2studio_v7.5.1_ssp_v1.7.5/toolchains/gcc_arm/7.2.1_2017q4/bin/../lib/gcc/arm-none-eabi/7.2.1/../../../../arm-none-eabi/lib/thumb/v7e-m/fpv4-sp/hard\libg_nano.a(lib_a-closer.o)
 .debug_frame   0x00002448       0x68 c:/renesas/synergy/e2studio_v7.5.1_ssp_v1.7.5/toolchains/gcc_arm/7.2.1_2017q4/bin/../lib/gcc/arm-none-eabi/7.2.1/../../../../arm-none-eabi/lib/thumb/v7e-m/fpv4-sp/hard\libg_nano.a(lib_a-fflush.o)
 .debug_frame   0x000024b0       0x2c c:/renesas/synergy/e2studio_v7.5.1_ssp_v1.7.5/toolchains/gcc_arm/7.2.1_2017q4/bin/../lib/gcc/arm-none-eabi/7.2.1/../../../../arm-none-eabi/lib/thumb/v7e-m/fpv4-sp/hard\libg_nano.a(lib_a-lseekr.o)
 .debug_frame   0x000024dc       0x58 c:/renesas/synergy/e2studio_v7.5.1_ssp_v1.7.5/toolchains/gcc_arm/7.2.1_2017q4/bin/../lib/gcc/arm-none-eabi/7.2.1/../../../../arm-none-eabi/lib/thumb/v7e-m/fpv4-sp/hard\libg_nano.a(lib_a-makebuf.o)
 .debug_frame   0x00002534       0x30 c:/renesas/synergy/e2studio_v7.5.1_ssp_v1.7.5/toolchains/gcc_arm/7.2.1_2017q4/bin/../lib/gcc/arm-none-eabi/7.2.1/../../../../arm-none-eabi/lib/thumb/v7e-m/fpv4-sp/hard\libg_nano.a(lib_a-mlock.o)
 .debug_frame   0x00002564       0x2c c:/renesas/synergy/e2studio_v7.5.1_ssp_v1.7.5/toolchains/gcc_arm/7.2.1_2017q4/bin/../lib/gcc/arm-none-eabi/7.2.1/../../../../arm-none-eabi/lib/thumb/v7e-m/fpv4-sp/hard\libg_nano.a(lib_a-readr.o)
 .debug_frame   0x00002590       0x5c c:/renesas/synergy/e2studio_v7.5.1_ssp_v1.7.5/toolchains/gcc_arm/7.2.1_2017q4/bin/../lib/gcc/arm-none-eabi/7.2.1/../../../../arm-none-eabi/lib/thumb/v7e-m/fpv4-sp/hard\libg_nano.a(lib_a-reent.o)
 .debug_frame   0x000025ec       0x2c c:/renesas/synergy/e2studio_v7.5.1_ssp_v1.7.5/toolchains/gcc_arm/7.2.1_2017q4/bin/../lib/gcc/arm-none-eabi/7.2.1/../../../../arm-none-eabi/lib/thumb/v7e-m/fpv4-sp/hard\libg_nano.a(lib_a-fstatr.o)
 .debug_frame   0x00002618       0x2c c:/renesas/synergy/e2studio_v7.5.1_ssp_v1.7.5/toolchains/gcc_arm/7.2.1_2017q4/bin/../lib/gcc/arm-none-eabi/7.2.1/../../../../arm-none-eabi/lib/thumb/v7e-m/fpv4-sp/hard\libg_nano.a(lib_a-isattyr.o)
 .debug_frame   0x00002644      0x3ac c:/renesas/synergy/e2studio_v7.5.1_ssp_v1.7.5/toolchains/gcc_arm/7.2.1_2017q4/bin/../lib/gcc/arm-none-eabi/7.2.1/../../../../arm-none-eabi/lib/thumb/v7e-m/fpv4-sp/hard\librdimon_nano.a(rdimon-syscalls.o)
